(lp0
(lp1
(lp2
S'-'
p3
ag3
ag3
ag3
aa(lp4
g3
ag3
aS'0'
p5
ag3
aa(lp6
g3
ag3
ag3
ag3
aaa(lp7
(lp8
g3
ag3
ag3
ag3
aa(lp9
g3
ag3
aS'2'
p10
ag3
aa(lp11
g3
ag3
ag3
ag3
aa(lp12
S'1'
p13
ag13
ag10
ag5
aa(lp14
g3
ag3
ag3
ag3
aa(lp15
g3
ag13
ag3
ag3
aa(lp16
g3
ag3
ag3
ag3
aa(lp17
g13
ag13
ag10
ag5
aa(lp18
g3
ag3
ag3
ag3
aa(lp19
g13
ag3
ag3
ag3
aa(lp20
g3
ag3
ag3
ag3
aa(lp21
g3
ag3
ag3
ag3
aa(lp22
g3
ag3
ag3
ag3
aa(lp23
g3
ag3
ag10
ag3
aa(lp24
g3
ag3
ag3
ag3
aaa(lp25
(lp26
g3
ag3
ag3
ag3
aa(lp27
g3
ag3
ag5
ag3
aa(lp28
g3
ag3
ag3
ag3
aa(lp29
g5
ag13
ag5
ag10
aa(lp30
g3
ag3
ag3
ag3
aa(lp31
g3
ag13
ag3
ag3
aa(lp32
g3
ag3
ag3
ag3
aa(lp33
g5
ag13
ag5
ag10
aa(lp34
g3
ag3
ag3
ag3
aa(lp35
g5
ag3
ag3
ag3
aa(lp36
g3
ag3
ag3
ag3
aa(lp37
g3
ag3
ag3
ag3
aa(lp38
g3
ag3
ag3
ag3
aa(lp39
g3
ag13
ag3
ag10
aa(lp40
g3
ag3
ag3
ag3
aaa(lp41
(lp42
g3
ag3
ag3
ag3
aa(lp43
g3
ag5
ag3
ag5
aa(lp44
g3
ag3
ag3
ag3
aa(lp45
g13
ag5
ag5
ag5
aa(lp46
g3
ag3
ag3
ag3
aa(lp47
g3
ag3
ag3
ag3
aa(lp48
g3
ag13
ag3
ag10
aa(lp49
g3
ag3
ag3
ag3
aaa(lp50
(lp51
g3
ag3
ag3
ag3
aa(lp52
g13
ag3
ag3
ag5
aa(lp53
g3
ag3
ag3
ag3
aa(lp54
g3
ag3
ag5
ag3
aa(lp55
g3
ag3
ag3
ag3
aa(lp56
g13
ag3
ag3
ag5
aa(lp57
g3
ag3
ag3
ag3
aa(lp58
g13
ag3
ag3
ag5
aa(lp59
g3
ag3
ag3
ag3
aaa(lp60
(lp61
g3
ag3
ag3
ag3
aa(lp62
g5
ag13
ag5
ag10
aa(lp63
g3
ag3
ag3
ag3
aa(lp64
g3
ag3
ag3
ag3
aa(lp65
g3
ag3
ag3
ag3
aaa(lp66
(lp67
g3
ag3
ag3
ag3
aa(lp68
g3
ag13
ag3
ag10
aa(lp69
g3
ag3
ag3
ag3
aa(lp70
g3
ag3
ag3
ag3
aa(lp71
g3
ag3
ag3
ag3
aa(lp72
g3
ag3
ag5
ag3
aa(lp73
g3
ag3
ag3
ag3
aaa(lp74
(lp75
g3
ag3
ag3
ag3
aa(lp76
g3
ag3
ag10
ag3
aa(lp77
g3
ag3
ag3
ag3
aa(lp78
g13
ag13
ag10
ag5
aa(lp79
g3
ag3
ag3
ag3
aa(lp80
g3
ag13
ag3
ag3
aa(lp81
g3
ag3
ag3
ag3
aa(lp82
g13
ag13
ag10
ag5
aa(lp83
g3
ag3
ag3
ag3
aa(lp84
g13
ag3
ag3
ag3
aa(lp85
g3
ag3
ag3
ag3
aa(lp86
g3
ag3
ag3
ag3
aa(lp87
g3
ag3
ag3
ag3
aa(lp88
g3
ag3
ag10
ag3
aa(lp89
g3
ag3
ag3
ag3
aaa(lp90
(lp91
g3
ag3
ag3
ag3
aa(lp92
g3
ag3
ag5
ag3
aa(lp93
g3
ag3
ag3
ag3
aa(lp94
g5
ag13
ag5
ag10
aa(lp95
g3
ag3
ag3
ag3
aa(lp96
g3
ag3
ag5
ag3
aa(lp97
g3
ag3
ag3
ag3
aa(lp98
g3
ag13
ag3
ag3
aa(lp99
g3
ag3
ag3
ag3
aa(lp100
g5
ag13
ag5
ag10
aa(lp101
g3
ag3
ag3
ag3
aa(lp102
g3
ag13
ag3
ag3
aa(lp103
g3
ag3
ag3
ag3
aa(lp104
g3
ag3
ag3
ag5
aa(lp105
g3
ag3
ag3
ag3
aa(lp106
g3
ag3
ag3
ag10
aa(lp107
g3
ag3
ag3
ag3
aaa(lp108
(lp109
g3
ag3
ag3
ag3
aa(lp110
g5
ag13
ag5
ag10
aa(lp111
g3
ag3
ag3
ag3
aa(lp112
g3
ag3
ag3
ag3
aa(lp113
g3
ag3
ag3
ag3
aa(lp114
g3
ag13
ag3
ag10
aa(lp115
g3
ag3
ag3
ag3
aaa(lp116
(lp117
g3
ag3
ag3
ag3
aa(lp118
g3
ag5
ag3
ag5
aa(lp119
g3
ag3
ag3
ag3
aa(lp120
g13
ag5
ag5
ag5
aa(lp121
g3
ag3
ag3
ag3
aa(lp122
g3
ag3
ag3
ag3
aa(lp123
g3
ag13
ag3
ag10
aa(lp124
g3
ag3
ag3
ag3
aaa(lp125
(lp126
g3
ag3
ag3
ag3
aa(lp127
g13
ag3
ag3
ag5
aa(lp128
g3
ag3
ag3
ag3
aa(lp129
g13
ag5
ag5
ag5
aa(lp130
g3
ag3
ag3
ag3
aa(lp131
g3
ag5
ag3
ag5
aa(lp132
g3
ag3
ag3
ag3
aa(lp133
g13
ag5
ag5
ag5
aa(lp134
g3
ag3
ag3
ag3
aaa(lp135
(lp136
g3
ag3
ag3
ag3
aa(lp137
g5
ag13
ag5
ag10
aa(lp138
g3
ag3
ag3
ag3
aa(lp139
g3
ag3
ag3
ag3
aa(lp140
g3
ag3
ag3
ag3
aaa(lp141
(lp142
g3
ag3
ag3
ag3
aa(lp143
S'3'
p144
ag13
ag144
ag10
aa(lp145
g3
ag3
ag3
ag3
aa(lp146
g3
ag3
ag3
ag3
aa(lp147
g3
ag3
ag3
ag3
aa(lp148
g3
ag3
ag5
ag3
aa(lp149
g3
ag3
ag3
ag3
aaa(lp150
(lp151
g3
ag3
ag3
ag3
aa(lp152
g3
ag3
ag10
ag3
aa(lp153
g3
ag3
ag3
ag3
aa(lp154
g13
ag13
ag10
ag5
aa(lp155
g3
ag3
ag3
ag3
aa(lp156
g3
ag13
ag3
ag3
aa(lp157
g3
ag3
ag3
ag3
aa(lp158
g13
ag13
ag10
ag5
aa(lp159
g3
ag3
ag3
ag3
aa(lp160
g13
ag3
ag3
ag3
aa(lp161
g3
ag3
ag3
ag3
aa(lp162
g3
ag3
ag3
ag3
aa(lp163
g3
ag3
ag3
ag3
aa(lp164
g3
ag3
ag10
ag3
aa(lp165
g3
ag3
ag3
ag3
aaa(lp166
(lp167
g3
ag3
ag3
ag3
aa(lp168
g3
ag3
ag5
ag3
aa(lp169
g3
ag3
ag3
ag3
aa(lp170
g5
ag13
ag5
ag10
aa(lp171
g3
ag3
ag3
ag3
aa(lp172
g3
ag13
ag3
ag3
aa(lp173
g3
ag3
ag3
ag3
aa(lp174
g5
ag13
ag5
ag10
aa(lp175
g3
ag3
ag3
ag3
aa(lp176
g5
ag3
ag3
ag3
aa(lp177
g3
ag3
ag3
ag3
aa(lp178
g3
ag3
ag3
ag3
aa(lp179
g3
ag3
ag3
ag3
aa(lp180
g3
ag13
ag3
ag10
aa(lp181
g3
ag3
ag3
ag3
aaa(lp182
(lp183
g3
ag3
ag3
ag3
aa(lp184
g3
ag5
ag3
ag5
aa(lp185
g3
ag3
ag3
ag3
aa(lp186
g13
ag5
ag5
ag5
aa(lp187
g3
ag3
ag3
ag3
aa(lp188
g3
ag3
ag3
ag3
aa(lp189
g3
ag13
ag3
ag10
aa(lp190
g3
ag3
ag3
ag3
aaa(lp191
(lp192
g3
ag3
ag3
ag3
aa(lp193
g13
ag3
ag3
ag5
aa(lp194
g3
ag3
ag3
ag3
aa(lp195
g3
ag3
ag5
ag3
aa(lp196
g3
ag3
ag3
ag3
aa(lp197
g13
ag3
ag3
ag5
aa(lp198
g3
ag3
ag3
ag3
aa(lp199
g13
ag3
ag3
ag5
aa(lp200
g3
ag3
ag3
ag3
aaa(lp201
(lp202
g3
ag3
ag3
ag3
aa(lp203
g5
ag13
ag5
ag10
aa(lp204
g3
ag3
ag3
ag3
aa(lp205
g3
ag3
ag3
ag3
aa(lp206
g3
ag3
ag3
ag3
aaa(lp207
(lp208
g3
ag3
ag3
ag3
aa(lp209
g3
ag13
ag3
ag10
aa(lp210
g3
ag3
ag3
ag3
aa(lp211
g3
ag3
ag3
ag3
aa(lp212
g3
ag3
ag3
ag3
aa(lp213
g3
ag3
ag5
ag3
aa(lp214
g3
ag3
ag3
ag3
aaa(lp215
(lp216
g3
ag3
ag3
ag3
aa(lp217
g3
ag3
ag10
ag3
aa(lp218
g3
ag3
ag3
ag3
aa(lp219
g13
ag13
ag10
ag5
aa(lp220
g3
ag3
ag3
ag3
aa(lp221
g3
ag13
ag3
ag3
aa(lp222
g3
ag3
ag3
ag3
aa(lp223
g13
ag13
ag10
ag5
aa(lp224
g3
ag3
ag3
ag3
aa(lp225
g13
ag3
ag3
ag3
aa(lp226
g3
ag3
ag3
ag3
aa(lp227
g3
ag3
ag3
ag3
aa(lp228
g3
ag3
ag3
ag3
aa(lp229
g3
ag3
ag10
ag3
aa(lp230
g3
ag3
ag3
ag3
aaa(lp231
(lp232
g3
ag3
ag3
ag3
aa(lp233
g3
ag3
ag5
ag3
aa(lp234
g3
ag3
ag3
ag3
aa(lp235
g5
ag13
ag5
ag10
aa(lp236
g3
ag3
ag3
ag3
aa(lp237
g3
ag3
ag5
ag3
aa(lp238
g3
ag3
ag3
ag3
aa(lp239
g3
ag13
ag3
ag3
aa(lp240
g3
ag3
ag3
ag3
aa(lp241
g5
ag13
ag5
ag10
aa(lp242
g3
ag3
ag3
ag3
aa(lp243
g3
ag13
ag3
ag3
aa(lp244
g3
ag3
ag3
ag3
aa(lp245
g3
ag3
ag3
ag5
aa(lp246
g3
ag3
ag3
ag3
aa(lp247
g3
ag3
ag3
ag10
aa(lp248
g3
ag3
ag3
ag3
aaa(lp249
(lp250
g3
ag3
ag3
ag3
aa(lp251
g5
ag13
ag5
ag10
aa(lp252
g3
ag3
ag3
ag3
aa(lp253
g3
ag3
ag3
ag3
aa(lp254
g3
ag3
ag3
ag3
aa(lp255
g3
ag13
ag3
ag10
aa(lp256
g3
ag3
ag3
ag3
aaa(lp257
(lp258
g3
ag3
ag3
ag3
aa(lp259
g3
ag5
ag3
ag5
aa(lp260
g3
ag3
ag3
ag3
aa(lp261
g13
ag5
ag5
ag5
aa(lp262
g3
ag3
ag3
ag3
aa(lp263
g3
ag3
ag3
ag3
aa(lp264
g3
ag13
ag3
ag10
aa(lp265
g3
ag3
ag3
ag3
aaa(lp266
(lp267
g3
ag3
ag3
ag3
aa(lp268
g13
ag3
ag3
ag5
aa(lp269
g3
ag3
ag3
ag3
aa(lp270
g13
ag5
ag5
ag5
aa(lp271
g3
ag3
ag3
ag3
aa(lp272
g3
ag5
ag3
ag5
aa(lp273
g3
ag3
ag3
ag3
aa(lp274
g13
ag5
ag5
ag5
aa(lp275
g3
ag3
ag3
ag3
aaa(lp276
(lp277
g3
ag3
ag3
ag3
aa(lp278
g5
ag13
ag5
ag10
aa(lp279
g3
ag3
ag3
ag3
aa(lp280
g3
ag3
ag3
ag3
aa(lp281
g3
ag3
ag3
ag3
aa(lp282
g3
ag3
ag3
ag3
aaa(lp283
(lp284
g3
ag3
ag3
ag3
aa(lp285
g13
ag13
ag10
ag5
aa(lp286
g3
ag3
ag3
ag3
aa(lp287
g3
ag3
ag3
ag3
aa(lp288
g13
ag13
ag13
ag5
aa(lp289
g3
ag3
ag3
ag3
aa(lp290
g3
ag3
ag3
ag3
aa(lp291
g3
ag3
ag3
ag3
aa(lp292
g5
ag13
ag5
ag10
aa(lp293
g3
ag3
ag3
ag3
aa(lp294
g3
ag3
ag3
ag3
aa(lp295
g3
ag3
ag3
ag3
aaa.