(lp0
(lp1
(lp2
S'-'
p3
ag3
ag3
ag3
aa(lp4
g3
ag3
ag3
aS'0'
p5
aa(lp6
g3
ag3
ag3
ag3
aa(lp7
g3
ag3
aS'2'
p8
ag3
aa(lp9
g3
ag3
ag3
ag3
aa(lp10
g8
ag3
ag3
ag3
aa(lp11
g3
ag3
ag3
ag3
aa(lp12
g5
ag3
ag3
ag3
aa(lp13
g3
ag3
ag3
ag3
aa(lp14
g8
ag3
ag3
ag3
aa(lp15
g3
ag3
ag3
ag3
aa(lp16
g3
ag3
ag8
ag3
aa(lp17
g3
ag3
ag3
ag3
aa(lp18
g8
ag3
ag3
ag3
aa(lp19
g3
ag3
ag3
ag3
aa(lp20
g3
ag3
ag8
ag3
aa(lp21
g3
ag3
ag3
ag3
aa(lp22
g3
ag3
ag3
ag5
aa(lp23
g3
ag3
ag3
ag3
aa(lp24
g3
ag3
ag8
ag3
aa(lp25
g3
ag3
ag3
ag3
aa(lp26
g8
ag3
ag3
ag3
aa(lp27
g3
ag3
ag3
ag3
aa(lp28
g5
ag3
ag3
ag3
aa(lp29
g3
ag3
ag3
ag3
aa(lp30
g8
ag3
ag3
ag3
aa(lp31
g3
ag3
ag3
ag3
aa(lp32
g3
ag3
ag8
ag3
aa(lp33
g3
ag3
ag3
ag3
aa(lp34
g8
ag3
ag3
ag3
aa(lp35
g3
ag3
ag3
ag3
aa(lp36
g3
ag3
ag8
ag3
aa(lp37
g3
ag3
ag3
ag3
aaa(lp38
(lp39
g3
ag3
ag3
ag3
aa(lp40
g3
ag3
ag3
ag5
aa(lp41
g3
ag3
ag3
ag3
aa(lp42
g3
ag5
ag3
ag3
aa(lp43
g3
ag3
ag3
ag3
aa(lp44
S'3'
p45
ag3
ag3
ag3
aa(lp46
g3
ag3
ag3
ag3
aa(lp47
g8
ag3
ag3
ag3
aa(lp48
g3
ag3
ag3
ag3
aa(lp49
g45
ag3
ag3
ag3
aa(lp50
g3
ag3
ag3
ag3
aa(lp51
g3
ag5
ag3
ag3
aa(lp52
g3
ag3
ag3
ag3
aa(lp53
g45
ag3
ag3
ag3
aa(lp54
g3
ag3
ag3
ag3
aa(lp55
g3
ag5
ag3
ag3
aa(lp56
g3
ag3
ag3
ag3
aa(lp57
g3
ag3
ag3
ag5
aa(lp58
g3
ag3
ag3
ag3
aa(lp59
g3
ag5
ag3
ag3
aa(lp60
g3
ag3
ag3
ag3
aa(lp61
g45
ag3
ag3
ag3
aa(lp62
g3
ag3
ag3
ag3
aa(lp63
g8
ag3
ag3
ag3
aa(lp64
g3
ag3
ag3
ag3
aa(lp65
g45
ag3
ag3
ag3
aa(lp66
g3
ag3
ag3
ag3
aa(lp67
g3
ag5
ag3
ag3
aa(lp68
g3
ag3
ag3
ag3
aa(lp69
g45
ag3
ag3
ag3
aa(lp70
g3
ag3
ag3
ag3
aa(lp71
g3
ag5
ag3
ag3
aa(lp72
g3
ag3
ag3
ag3
aaa(lp73
(lp74
g3
ag3
ag3
ag3
aa(lp75
g3
ag3
ag3
ag5
aa(lp76
g3
ag3
ag3
ag3
aa(lp77
g3
ag8
ag3
ag3
aa(lp78
g3
ag3
ag3
ag3
aa(lp79
g45
ag3
ag3
ag3
aa(lp80
g3
ag3
ag3
ag3
aa(lp81
g8
ag3
ag3
ag3
aa(lp82
g3
ag3
ag3
ag3
aa(lp83
g45
ag3
ag3
ag3
aa(lp84
g3
ag3
ag3
ag3
aa(lp85
g3
ag8
ag3
ag3
aa(lp86
g3
ag3
ag3
ag3
aa(lp87
g45
ag3
ag3
ag3
aa(lp88
g3
ag3
ag3
ag3
aa(lp89
g3
ag8
ag3
ag3
aa(lp90
g3
ag3
ag3
ag3
aa(lp91
g3
ag3
ag3
ag5
aa(lp92
g3
ag3
ag3
ag3
aa(lp93
g3
ag8
ag3
ag3
aa(lp94
g3
ag3
ag3
ag3
aa(lp95
g45
ag3
ag3
ag3
aa(lp96
g3
ag3
ag3
ag3
aa(lp97
g8
ag3
ag3
ag3
aa(lp98
g3
ag3
ag3
ag3
aa(lp99
g45
ag3
ag3
ag3
aa(lp100
g3
ag3
ag3
ag3
aa(lp101
g3
ag8
ag3
ag3
aa(lp102
g3
ag3
ag3
ag3
aa(lp103
g45
ag3
ag3
ag3
aa(lp104
g3
ag3
ag3
ag3
aa(lp105
g3
ag8
ag3
ag3
aa(lp106
g3
ag3
ag3
ag3
aaa(lp107
(lp108
g3
ag3
ag3
ag3
aa(lp109
g3
ag3
ag3
ag5
aa(lp110
g3
ag3
ag3
ag3
aa(lp111
g3
ag45
ag3
ag3
aa(lp112
g3
ag3
ag3
ag3
aa(lp113
g8
ag3
ag3
ag3
aa(lp114
g3
ag3
ag3
ag3
aa(lp115
g5
ag3
ag3
ag3
aa(lp116
g3
ag3
ag3
ag3
aa(lp117
g8
ag3
ag3
ag3
aa(lp118
g3
ag3
ag3
ag3
aa(lp119
g3
ag45
ag3
ag3
aa(lp120
g3
ag3
ag3
ag3
aa(lp121
g8
ag3
ag3
ag3
aa(lp122
g3
ag3
ag3
ag3
aa(lp123
g3
ag45
ag3
ag3
aa(lp124
g3
ag3
ag3
ag3
aa(lp125
g3
ag3
ag3
ag5
aa(lp126
g3
ag3
ag3
ag3
aa(lp127
g3
ag45
ag3
ag3
aa(lp128
g3
ag3
ag3
ag3
aa(lp129
g8
ag3
ag3
ag3
aa(lp130
g3
ag3
ag3
ag3
aa(lp131
g5
ag3
ag3
ag3
aa(lp132
g3
ag3
ag3
ag3
aa(lp133
g8
ag3
ag3
ag3
aa(lp134
g3
ag3
ag3
ag3
aa(lp135
g3
ag45
ag3
ag3
aa(lp136
g3
ag3
ag3
ag3
aa(lp137
g8
ag3
ag3
ag3
aa(lp138
g3
ag3
ag3
ag3
aa(lp139
g3
ag8
ag3
ag3
aa(lp140
g3
ag3
ag3
ag3
aaa(lp141
(lp142
g3
ag3
ag3
ag3
aa(lp143
g3
ag3
ag3
ag5
aa(lp144
g3
ag3
ag3
ag3
aa(lp145
g3
ag5
ag3
ag3
aa(lp146
g3
ag3
ag3
ag3
aa(lp147
g8
ag3
ag3
ag3
aa(lp148
g3
ag3
ag3
ag3
aa(lp149
g5
ag3
ag3
ag3
aa(lp150
g3
ag3
ag3
ag3
aa(lp151
g8
ag3
ag3
ag3
aa(lp152
g3
ag3
ag3
ag3
aa(lp153
g3
ag45
ag3
ag3
aa(lp154
g3
ag3
ag3
ag3
aa(lp155
g3
ag8
ag3
ag3
aa(lp156
g3
ag3
ag3
ag3
aa(lp157
g3
ag45
ag3
ag3
aa(lp158
g3
ag3
ag3
ag3
aa(lp159
g3
ag3
aS'4'
p160
ag3
aa(lp161
g3
ag3
ag3
ag3
aa(lp162
g3
ag45
ag3
ag3
aa(lp163
g3
ag3
ag3
ag3
aa(lp164
g3
ag8
ag3
ag3
aa(lp165
g3
ag3
ag3
ag3
aa(lp166
S'-'
p167
aS'3'
p168
ag167
ag167
aa(lp169
g3
ag3
ag3
ag3
aa(lp170
g167
ag167
ag167
aS'4'
p171
aa(lp172
g3
ag3
ag3
ag3
aa(lp173
S'-'
p174
ag174
aS'2'
p175
ag174
aa(lp176
g3
ag3
ag3
ag3
aa(lp177
g174
ag174
aS'0'
p178
ag174
aa(lp179
g3
ag3
ag3
ag3
aa(lp180
g167
ag167
ag167
ag171
aa(lp181
g3
ag3
ag3
ag3
aaa(lp182
(lp183
g3
ag3
ag3
ag3
aa(lp184
g3
ag3
aS'1'
p185
ag3
aa(lp186
g3
ag3
ag3
ag3
aa(lp187
g3
ag45
ag3
ag3
aa(lp188
g3
ag3
ag3
ag3
aa(lp189
g5
ag3
ag3
ag3
aa(lp190
g3
ag3
ag3
ag3
aa(lp191
g3
ag45
ag3
ag3
aa(lp192
g3
ag3
ag3
ag3
aa(lp193
g5
ag3
ag3
ag3
aa(lp194
g3
ag3
ag3
ag3
aa(lp195
g3
ag45
ag3
ag3
aa(lp196
g3
ag3
ag3
ag3
aa(lp197
g5
ag3
ag3
ag3
aa(lp198
g3
ag3
ag3
ag3
aa(lp199
g3
ag45
ag3
ag3
aa(lp200
g3
ag3
ag3
ag3
aa(lp201
g3
ag3
ag185
ag3
aa(lp202
g3
ag3
ag3
ag3
aa(lp203
g3
ag45
ag3
ag3
aa(lp204
g3
ag3
ag3
ag3
aa(lp205
g5
ag3
ag3
ag3
aa(lp206
g3
ag3
ag3
ag3
aa(lp207
g3
ag45
ag3
ag3
aa(lp208
g3
ag3
ag3
ag3
aa(lp209
g5
ag3
ag3
ag3
aa(lp210
g3
ag3
ag3
ag3
aa(lp211
g3
ag45
ag3
ag3
aa(lp212
g3
ag3
ag3
ag3
aa(lp213
g5
ag3
ag3
ag3
aa(lp214
g3
ag3
ag3
ag3
aa(lp215
g3
ag45
ag3
ag3
aa(lp216
g3
ag3
ag3
ag3
aaa(lp217
(lp218
g3
ag3
ag3
ag3
aa(lp219
g3
ag8
ag3
ag3
aa(lp220
g3
ag3
ag3
ag3
aa(lp221
g3
aS'5'
p222
ag3
ag3
aa(lp223
g3
ag3
ag3
ag3
aa(lp224
g222
ag3
ag3
ag3
aa(lp225
g3
ag3
ag3
ag3
aa(lp226
g160
ag3
ag3
ag3
aa(lp227
g3
ag3
ag3
ag3
aa(lp228
g222
ag3
ag3
ag3
aa(lp229
g3
ag3
ag3
ag3
aa(lp230
g5
ag3
ag3
ag3
aa(lp231
g3
ag3
ag3
ag3
aa(lp232
g3
ag45
ag3
ag3
aa(lp233
g3
ag3
ag3
ag3
aa(lp234
g5
ag3
ag3
ag3
aa(lp235
g3
ag3
ag3
ag3
aa(lp236
g3
ag8
ag3
ag3
aa(lp237
g3
ag3
ag3
ag3
aa(lp238
g5
ag3
ag3
ag3
aa(lp239
g3
ag3
ag3
ag3
aa(lp240
g3
ag45
ag3
ag3
aa(lp241
g3
ag3
ag3
ag3
aa(lp242
g5
ag3
ag3
ag3
aa(lp243
g3
ag3
ag3
ag3
aa(lp244
g3
ag3
ag8
ag3
aa(lp245
g3
ag3
ag3
ag3
aa(lp246
g3
ag8
ag3
ag3
aa(lp247
g3
ag3
ag3
ag3
aa(lp248
g3
ag5
ag3
ag3
aa(lp249
g3
ag3
ag3
ag3
aa(lp250
g3
ag3
ag8
ag3
aa(lp251
g3
ag3
ag3
ag3
aaa(lp252
(lp253
g3
ag3
ag3
ag3
aa(lp254
g3
ag3
ag160
ag3
aa(lp255
g3
ag3
ag3
ag3
aa(lp256
g3
ag3
ag160
ag3
aa(lp257
g3
ag3
ag3
ag3
aa(lp258
g3
ag45
ag3
ag3
aa(lp259
g3
ag3
ag3
ag3
aa(lp260
g3
ag8
ag3
ag3
aa(lp261
g3
ag3
ag3
ag3
aa(lp262
g3
ag45
ag3
ag3
aa(lp263
g3
ag3
ag3
ag3
aa(lp264
g3
ag3
ag160
ag3
aa(lp265
g3
ag3
ag3
ag3
aa(lp266
g3
ag45
ag3
ag3
aa(lp267
g3
ag3
ag3
ag3
aa(lp268
g3
ag3
ag160
ag3
aa(lp269
g3
ag3
ag3
ag3
aa(lp270
g3
ag3
ag160
ag3
aa(lp271
g3
ag3
ag3
ag3
aa(lp272
g3
ag3
ag160
ag3
aa(lp273
g3
ag3
ag3
ag3
aa(lp274
g3
ag45
ag3
ag3
aa(lp275
g3
ag3
ag3
ag3
aa(lp276
g3
ag8
ag3
ag3
aa(lp277
g3
ag3
ag3
ag3
aa(lp278
g3
ag45
ag3
ag3
aa(lp279
g3
ag3
ag3
ag3
aa(lp280
g3
ag3
ag160
ag3
aa(lp281
g3
ag3
ag3
ag3
aa(lp282
g3
ag45
ag3
ag3
aa(lp283
g3
ag3
ag3
ag3
aa(lp284
S'-'
p285
ag285
aS'4'
p286
ag285
aa(lp287
g3
ag3
ag3
ag3
aaa(lp288
(lp289
g3
ag3
ag3
ag3
aa(lp290
g3
ag3
ag185
ag3
aa(lp291
g3
ag3
ag3
ag3
aa(lp292
g3
ag3
ag185
ag3
aa(lp293
g3
ag3
ag3
ag3
aa(lp294
g3
ag3
ag8
ag3
aa(lp295
g3
ag3
ag3
ag3
aa(lp296
g3
ag5
ag3
ag3
aa(lp297
g3
ag3
ag3
ag3
aa(lp298
g3
ag3
ag8
ag3
aa(lp299
g3
ag3
ag3
ag3
aa(lp300
g3
ag3
ag185
ag3
aa(lp301
g3
ag3
ag3
ag3
aa(lp302
S'-'
p303
ag303
ag303
aS'4'
p304
aa(lp305
g3
ag3
ag3
ag3
aa(lp306
g303
ag303
ag303
aS'2'
p307
aa(lp308
g3
ag3
ag3
ag3
aa(lp309
g3
ag45
ag3
ag3
aa(lp310
g3
ag3
ag3
ag3
aa(lp311
g3
ag8
ag3
ag3
aa(lp312
g3
ag3
ag3
ag3
aa(lp313
g3
ag5
ag3
ag3
aa(lp314
g3
ag3
ag3
ag3
aa(lp315
g222
ag3
ag3
ag3
aa(lp316
g3
ag3
ag3
ag3
aa(lp317
g160
ag3
ag3
ag3
aa(lp318
g3
ag3
ag3
ag3
aa(lp319
g8
ag3
ag3
ag3
aa(lp320
g3
ag3
ag3
ag3
aa(lp321
g5
ag3
ag3
ag3
aa(lp322
g3
ag3
ag3
ag3
aa(lp323
g3
ag45
ag3
ag3
aa(lp324
g3
ag3
ag3
ag3
aaa(lp325
(lp326
g3
ag3
ag3
ag3
aa(lp327
g3
ag8
ag3
ag3
aa(lp328
g3
ag3
ag3
ag3
aa(lp329
g3
ag5
ag3
ag3
aa(lp330
g3
ag3
ag3
ag3
aa(lp331
g3
ag3
ag8
ag3
aa(lp332
g3
ag3
ag3
ag3
aa(lp333
g222
ag3
ag3
ag3
aa(lp334
g3
ag3
ag3
ag3
aa(lp335
g178
ag174
ag174
ag174
aa(lp336
g3
ag3
ag3
ag3
aa(lp337
g222
ag3
ag3
ag3
aa(lp338
g3
ag3
ag3
ag3
aa(lp339
g3
ag8
ag3
ag3
aa(lp340
g3
ag3
ag3
ag3
aa(lp341
g5
ag3
ag3
ag3
aa(lp342
g3
ag3
ag3
ag3
aa(lp343
g3
ag3
ag8
ag3
aa(lp344
g3
ag3
ag3
ag3
aa(lp345
g3
ag5
ag3
ag3
aa(lp346
g3
ag3
ag3
ag3
aa(lp347
g3
ag8
ag3
ag3
aa(lp348
g3
ag3
ag3
ag3
aa(lp349
g5
ag3
ag3
ag3
aa(lp350
g3
ag3
ag3
ag3
aa(lp351
g3
ag45
ag3
ag3
aa(lp352
g3
ag3
ag3
ag3
aa(lp353
g3
ag8
ag3
ag3
aa(lp354
g3
ag3
ag3
ag3
aa(lp355
g3
ag5
ag3
ag3
aa(lp356
g3
ag3
ag3
ag3
aa(lp357
g3
ag3
ag8
ag3
aa(lp358
g3
ag3
ag3
ag3
aaa(lp359
(lp360
g3
ag3
ag3
ag3
aa(lp361
g3
ag160
ag3
ag3
aa(lp362
g3
ag3
ag3
ag3
aa(lp363
g3
ag3
ag8
ag3
aa(lp364
g3
ag3
ag3
ag3
aa(lp365
g3
ag185
ag3
ag3
aa(lp366
g3
ag3
ag3
ag3
aa(lp367
g3
ag5
ag3
ag3
aa(lp368
g3
ag3
ag3
ag3
aa(lp369
g3
ag185
ag3
ag3
aa(lp370
g3
ag3
ag3
ag3
aa(lp371
g3
ag3
ag8
ag3
aa(lp372
g3
ag3
ag3
ag3
aa(lp373
g3
ag160
ag3
ag3
aa(lp374
g3
ag3
ag3
ag3
aa(lp375
g3
ag3
ag8
ag3
aa(lp376
g3
ag3
ag3
ag3
aa(lp377
g8
ag3
ag3
ag3
aa(lp378
g3
ag3
ag3
ag3
aa(lp379
g3
ag3
ag8
ag3
aa(lp380
g3
ag3
ag3
ag3
aa(lp381
g3
ag185
ag3
ag3
aa(lp382
g3
ag3
ag3
ag3
aa(lp383
g3
ag5
ag3
ag3
aa(lp384
g3
ag3
ag3
ag3
aa(lp385
g3
ag185
ag3
ag3
aa(lp386
g3
ag3
ag3
ag3
aa(lp387
g3
ag3
ag8
ag3
aa(lp388
g3
ag3
ag3
ag3
aa(lp389
g3
ag160
ag3
ag3
aa(lp390
g3
ag3
ag3
ag3
aa(lp391
g3
ag3
ag8
ag3
aa(lp392
g3
ag3
ag3
ag3
aaa(lp393
(lp394
g3
ag3
ag3
ag3
aa(lp395
g3
ag3
ag5
ag3
aa(lp396
g3
ag3
ag3
ag3
aa(lp397
g3
ag5
ag3
ag3
aa(lp398
g3
ag3
ag3
ag3
aa(lp399
g5
ag3
ag3
ag3
aa(lp400
g3
ag3
ag3
ag3
aa(lp401
g8
ag3
ag3
ag3
aa(lp402
g3
ag3
ag3
ag3
aa(lp403
g45
ag3
ag3
ag3
aa(lp404
g3
ag3
ag3
ag3
aa(lp405
g5
ag3
ag3
ag3
aa(lp406
g3
ag3
ag3
ag3
aa(lp407
g3
ag5
ag3
ag3
aa(lp408
g3
ag3
ag3
ag3
aa(lp409
g3
ag3
ag8
ag3
aa(lp410
g3
ag3
ag3
ag3
aa(lp411
g3
ag3
ag5
ag3
aa(lp412
g3
ag3
ag3
ag3
aa(lp413
g3
ag5
ag3
ag3
aa(lp414
g3
ag3
ag3
ag3
aa(lp415
g5
ag3
ag3
ag3
aa(lp416
g3
ag3
ag3
ag3
aa(lp417
g8
ag3
ag3
ag3
aa(lp418
g3
ag3
ag3
ag3
aa(lp419
g45
ag3
ag3
ag3
aa(lp420
g3
ag3
ag3
ag3
aa(lp421
g5
ag3
ag3
ag3
aa(lp422
g3
ag3
ag3
ag3
aa(lp423
S'-'
p424
aS'2'
p425
ag424
ag424
aa(lp426
g3
ag3
ag3
ag3
aa(lp427
g424
aS'0'
p428
ag424
ag424
aa(lp429
g3
ag3
ag3
ag3
aaa(lp430
(lp431
g3
ag3
ag3
ag3
aa(lp432
g3
ag3
ag45
ag3
aa(lp433
g3
ag3
ag3
ag3
aa(lp434
g3
ag8
ag3
ag3
aa(lp435
g3
ag3
ag3
ag3
aa(lp436
g3
ag3
ag45
ag3
aa(lp437
g3
ag3
ag3
ag3
aa(lp438
g3
ag8
ag3
ag3
aa(lp439
g3
ag3
ag3
ag3
aa(lp440
g5
ag3
ag3
ag3
aa(lp441
g3
ag3
ag3
ag3
aa(lp442
g3
ag8
ag3
ag3
aa(lp443
g3
ag3
ag3
ag3
aa(lp444
g5
ag3
ag3
ag3
aa(lp445
g3
ag3
ag3
ag3
aa(lp446
g3
ag8
ag3
ag3
aa(lp447
g3
ag3
ag3
ag3
aa(lp448
g3
ag3
ag45
ag3
aa(lp449
g3
ag3
ag3
ag3
aa(lp450
g3
ag8
ag3
ag3
aa(lp451
g3
ag3
ag3
ag3
aa(lp452
g3
ag3
ag45
ag3
aa(lp453
g3
ag3
ag3
ag3
aa(lp454
g3
ag8
ag3
ag3
aa(lp455
g3
ag3
ag3
ag3
aa(lp456
g5
ag3
ag3
ag3
aa(lp457
g3
ag3
ag3
ag3
aa(lp458
g3
ag8
ag3
ag3
aa(lp459
g3
ag3
ag3
ag3
aa(lp460
g5
ag3
ag3
ag3
aa(lp461
g3
ag3
ag3
ag3
aa(lp462
g3
ag8
ag3
ag3
aa(lp463
g3
ag3
ag3
ag3
aaa(lp464
(lp465
g3
ag3
ag3
ag3
aa(lp466
S'-'
p467
aS'3'
p468
ag467
ag467
aa(lp469
g467
ag467
ag467
ag467
aa(lp470
g467
aS'2'
p471
ag467
ag467
aa(lp472
g467
ag467
ag467
ag467
aa(lp473
g467
aS'0'
p474
ag467
ag467
aa(lp475
g467
ag467
ag467
ag467
aa(lp476
g467
ag468
ag467
ag467
aa(lp477
g467
ag467
ag467
ag467
aa(lp478
g467
ag471
ag467
ag467
aa(lp479
g467
ag467
ag467
ag467
aa(lp480
g467
ag468
ag467
ag467
aa(lp481
g467
ag467
ag467
ag467
aa(lp482
g474
ag467
ag467
ag467
aa(lp483
g467
ag467
ag467
ag467
aa(lp484
g467
ag471
ag467
ag467
aa(lp485
g467
ag467
ag467
ag467
aa(lp486
g467
ag468
ag467
ag467
aa(lp487
g467
ag467
ag467
ag467
aa(lp488
g467
ag471
ag467
ag467
aa(lp489
g467
ag467
ag467
ag467
aa(lp490
g467
ag474
ag467
ag467
aa(lp491
g467
ag467
ag467
ag467
aa(lp492
g467
ag467
ag471
ag467
aa(lp493
g467
ag467
ag467
ag467
aa(lp494
g468
ag467
ag467
ag467
aa(lp495
g467
ag467
ag467
ag467
aa(lp496
g471
ag467
ag467
ag467
aa(lp497
g467
ag467
ag467
ag467
aa(lp498
g474
ag467
ag467
ag467
aa(lp499
g467
ag467
ag467
ag467
aa(lp500
S'-'
p501
ag501
aS'7'
p502
ag501
aa(lp503
g467
ag467
ag467
ag467
aaa(lp504
(lp505
g467
ag467
ag467
ag467
aa(lp506
g501
ag501
aS'6'
p507
ag501
aa(lp508
g467
ag467
ag467
ag467
aa(lp509
g501
aS'8'
p510
ag501
ag501
aa(lp511
g467
ag467
ag467
ag467
aa(lp512
S'5'
p513
ag467
ag467
ag467
aa(lp514
g467
ag467
ag467
ag467
aa(lp515
g501
ag510
ag501
ag501
aa(lp516
g467
ag467
ag467
ag467
aa(lp517
g513
ag467
ag467
ag467
aa(lp518
g467
ag467
ag467
ag467
aa(lp519
g501
ag510
ag501
ag501
aa(lp520
g467
ag467
ag467
ag467
aa(lp521
g513
ag467
ag467
ag467
aa(lp522
g467
ag467
ag467
ag467
aa(lp523
g501
ag510
ag501
ag501
aa(lp524
g467
ag467
ag467
ag467
aa(lp525
g501
ag501
ag507
ag501
aa(lp526
g467
ag467
ag467
ag467
aa(lp527
g501
ag510
ag501
ag501
aa(lp528
g467
ag467
ag467
ag467
aa(lp529
g513
ag467
ag467
ag467
aa(lp530
g467
ag467
ag467
ag467
aa(lp531
g501
ag510
ag501
ag501
aa(lp532
g467
ag467
ag467
ag467
aa(lp533
g513
ag467
ag467
ag467
aa(lp534
g467
ag467
ag467
ag467
aa(lp535
g501
ag510
ag501
ag501
aa(lp536
g467
ag467
ag467
ag467
aa(lp537
g513
ag467
ag467
ag467
aa(lp538
g467
ag467
ag467
ag467
aa(lp539
g501
ag510
ag501
ag501
aa(lp540
g467
ag467
ag467
ag467
aaa(lp541
(lp542
g467
ag467
ag467
ag467
aa(lp543
g467
ag467
ag467
ag474
aa(lp544
g467
ag467
ag467
ag467
aa(lp545
g467
aS'7'
p546
ag467
ag467
aa(lp547
g467
ag467
ag467
ag467
aa(lp548
S'8'
p549
ag467
ag467
ag467
aa(lp550
g467
ag467
ag467
ag467
aa(lp551
g546
ag467
ag467
ag467
aa(lp552
g467
ag467
ag467
ag467
aa(lp553
g549
ag467
ag467
ag467
aa(lp554
g467
ag467
ag467
ag467
aa(lp555
g467
ag546
ag467
ag467
aa(lp556
g467
ag467
ag467
ag467
aa(lp557
g549
ag467
ag467
ag467
aa(lp558
g467
ag467
ag467
ag467
aa(lp559
g467
ag546
ag467
ag467
aa(lp560
g467
ag467
ag467
ag467
aa(lp561
g467
ag467
ag467
ag474
aa(lp562
g467
ag467
ag467
ag467
aa(lp563
g467
ag546
ag467
ag467
aa(lp564
g467
ag467
ag467
ag467
aa(lp565
g549
ag467
ag467
ag467
aa(lp566
g467
ag467
ag467
ag467
aa(lp567
g546
ag467
ag467
ag467
aa(lp568
g467
ag467
ag467
ag467
aa(lp569
g549
ag467
ag467
ag467
aa(lp570
g467
ag467
ag467
ag467
aa(lp571
g467
ag546
ag467
ag467
aa(lp572
g467
ag467
ag467
ag467
aa(lp573
g549
ag467
ag467
ag467
aa(lp574
g467
ag467
ag467
ag467
aa(lp575
g467
ag546
ag467
ag467
aa(lp576
g467
ag467
ag467
ag467
aaa(lp577
(lp578
g467
ag467
ag467
ag467
aa(lp579
g467
ag467
ag467
ag474
aa(lp580
g467
ag467
ag467
ag467
aa(lp581
g467
ag549
ag467
ag467
aa(lp582
g467
ag467
ag467
ag467
aa(lp583
g546
ag467
ag467
ag467
aa(lp584
g467
ag467
ag467
ag467
aa(lp585
S'--'
p586
aS'10'
p587
aS'--'
p588
aS'--'
p589
aa(lp590
g467
ag467
ag467
ag467
aa(lp591
g546
ag467
ag467
ag467
aa(lp592
g467
ag467
ag467
ag467
aa(lp593
g467
ag549
ag467
ag467
aa(lp594
g467
ag467
ag467
ag467
aa(lp595
g546
ag467
ag467
ag467
aa(lp596
g467
ag467
ag467
ag467
aa(lp597
g467
ag549
ag467
ag467
aa(lp598
g467
ag467
ag467
ag467
aa(lp599
g467
ag467
ag467
ag474
aa(lp600
g467
ag467
ag467
ag467
aa(lp601
g467
ag549
ag467
ag467
aa(lp602
g467
ag467
ag467
ag467
aa(lp603
g546
ag467
ag467
ag467
aa(lp604
g467
ag467
ag467
ag467
aa(lp605
S'--'
p606
aS'10'
p607
aS'--'
p608
aS'--'
p609
aa(lp610
g467
ag467
ag467
ag467
aa(lp611
g546
ag467
ag467
ag467
aa(lp612
g467
ag467
ag467
ag467
aa(lp613
g467
ag549
ag467
ag467
aa(lp614
g467
ag467
ag467
ag467
aa(lp615
g546
ag467
ag467
ag467
aa(lp616
g467
ag467
ag467
ag467
aa(lp617
g467
ag549
ag467
ag467
aa(lp618
g467
ag467
ag467
ag467
aaa(lp619
(lp620
g467
ag467
ag467
ag467
aa(lp621
g467
ag467
ag467
ag474
aa(lp622
g467
ag467
ag467
ag467
aa(lp623
S'--'
p624
aS'14'
p625
aS'--'
p626
aS'--'
p627
aa(lp628
g467
ag467
ag467
ag467
aa(lp629
S'15'
p630
aS'--'
p631
aS'--'
p632
aS'--'
p633
aa(lp634
g467
ag467
ag467
ag467
aa(lp635
S'14'
p636
aS'--'
p637
aS'--'
p638
aS'--'
p639
aa(lp640
g467
ag467
ag467
ag467
aa(lp641
S'15'
p642
aS'--'
p643
aS'--'
p644
aS'--'
p645
aa(lp646
g467
ag467
ag467
ag467
aa(lp647
S'--'
p648
aS'14'
p649
aS'--'
p650
aS'--'
p651
aa(lp652
g467
ag467
ag467
ag467
aa(lp653
S'15'
p654
aS'--'
p655
aS'--'
p656
aS'--'
p657
aa(lp658
g467
ag467
ag467
ag467
aa(lp659
S'--'
p660
aS'14'
p661
aS'--'
p662
aS'--'
p663
aa(lp664
g467
ag467
ag467
ag467
aa(lp665
g467
ag467
ag467
ag474
aa(lp666
g467
ag467
ag467
ag467
aa(lp667
S'--'
p668
aS'14'
p669
aS'--'
p670
aS'--'
p671
aa(lp672
g467
ag467
ag467
ag467
aa(lp673
S'15'
p674
aS'--'
p675
aS'--'
p676
aS'--'
p677
aa(lp678
g467
ag467
ag467
ag467
aa(lp679
S'14'
p680
aS'--'
p681
aS'--'
p682
aS'--'
p683
aa(lp684
g467
ag467
ag467
ag467
aa(lp685
S'15'
p686
aS'--'
p687
aS'--'
p688
aS'--'
p689
aa(lp690
g467
ag467
ag467
ag467
aa(lp691
S'--'
p692
aS'14'
p693
aS'--'
p694
aS'--'
p695
aa(lp696
g467
ag467
ag467
ag467
aa(lp697
S'15'
p698
aS'--'
p699
aS'--'
p700
aS'--'
p701
aa(lp702
g467
ag467
ag467
ag467
aa(lp703
S'--'
p704
aS'14'
p705
aS'--'
p706
aS'--'
p707
aa(lp708
g467
ag467
ag467
ag467
aaa(lp709
(lp710
g467
ag467
ag467
ag467
aa(lp711
g467
ag467
ag467
ag474
aa(lp712
g467
ag467
ag467
ag467
aa(lp713
S'--'
p714
aS'10'
p715
aS'--'
p716
aS'--'
p717
aa(lp718
g467
ag467
ag467
ag467
aa(lp719
S'14'
p720
aS'--'
p721
aS'--'
p722
aS'--'
p723
aa(lp724
g467
ag467
ag467
ag467
aa(lp725
S'12'
p726
aS'--'
p727
aS'--'
p728
aS'--'
p729
aa(lp730
g467
ag467
ag467
ag467
aa(lp731
S'14'
p732
aS'--'
p733
aS'--'
p734
aS'--'
p735
aa(lp736
g467
ag467
ag467
ag467
aa(lp737
S'10'
p738
aS'--'
p739
aS'--'
p740
aS'--'
p741
aa(lp742
g467
ag467
ag467
ag467
aa(lp743
S'9'
p744
ag467
ag467
ag467
aa(lp745
g467
ag467
ag467
ag467
aa(lp746
g546
ag467
ag467
ag467
aa(lp747
g467
ag467
ag467
ag467
aa(lp748
S'--'
p749
aS'10'
p750
aS'--'
p751
aS'--'
p752
aa(lp753
g467
ag467
ag467
ag467
aa(lp754
g467
ag549
ag467
ag467
aa(lp755
g467
ag467
ag467
ag467
aa(lp756
g467
ag546
ag467
ag467
aa(lp757
g467
ag467
ag467
ag467
aa(lp758
g474
ag467
ag467
ag467
aa(lp759
g467
ag467
ag467
ag467
aa(lp760
g467
ag468
ag467
ag467
aa(lp761
g467
ag467
ag467
ag467
aa(lp762
g467
ag471
ag467
ag467
aa(lp763
g467
ag467
ag467
ag467
aa(lp764
g467
ag474
ag467
ag467
aa(lp765
g467
ag467
ag467
ag467
aa(lp766
g467
ag467
ag471
ag467
aa(lp767
g467
ag467
ag467
ag467
aaa(lp768
(lp769
g467
ag467
ag467
ag467
aa(lp770
g467
ag467
aS'1'
p771
ag467
aa(lp772
g467
ag467
ag467
ag467
aa(lp773
g474
ag467
ag467
ag467
aa(lp774
g467
ag467
ag467
ag467
aa(lp775
g467
ag474
ag467
ag467
aa(lp776
g467
ag467
ag467
ag467
aa(lp777
g467
ag471
ag467
ag467
aa(lp778
g467
ag467
ag467
ag467
aa(lp779
g467
ag468
ag467
ag467
aa(lp780
g467
ag467
ag467
ag467
aa(lp781
g467
ag474
ag467
ag467
aa(lp782
g467
ag467
ag467
ag467
aa(lp783
g467
ag471
ag467
ag467
aa(lp784
g467
ag467
ag467
ag467
aa(lp785
g467
ag468
ag467
ag467
aa(lp786
g467
ag467
ag467
ag467
aa(lp787
g467
ag467
ag771
ag467
aa(lp788
g467
ag467
ag467
ag467
aa(lp789
g474
ag467
ag467
ag467
aa(lp790
g467
ag467
ag467
ag467
aa(lp791
g467
ag474
ag467
ag467
aa(lp792
g467
ag467
ag467
ag467
aa(lp793
g467
ag471
ag467
ag467
aa(lp794
g467
ag467
ag467
ag467
aa(lp795
g467
ag468
ag467
ag467
aa(lp796
g467
ag467
ag467
ag467
aa(lp797
g467
ag474
ag467
ag467
aa(lp798
g467
ag467
ag467
ag467
aa(lp799
g467
ag471
ag467
ag467
aa(lp800
g467
ag467
ag467
ag467
aa(lp801
g467
ag468
ag467
ag467
aa(lp802
g467
ag467
ag467
ag467
aaa(lp803
(lp804
g467
ag467
ag467
ag467
aa(lp805
g467
ag467
ag474
ag467
aa(lp806
g467
ag467
ag467
ag467
aa(lp807
g474
ag467
ag467
ag467
aa(lp808
g467
ag467
ag467
ag467
aa(lp809
g467
ag467
ag471
ag467
aa(lp810
g467
ag467
ag467
ag467
aa(lp811
g467
ag474
ag467
ag467
aa(lp812
g467
ag467
ag467
ag467
aa(lp813
g467
ag471
ag467
ag467
aa(lp814
g467
ag467
ag467
ag467
aa(lp815
g467
ag467
ag471
ag467
aa(lp816
g467
ag467
ag467
ag467
aa(lp817
g467
ag474
ag467
ag467
aa(lp818
g467
ag467
ag467
ag467
aa(lp819
g467
ag471
ag467
ag467
aa(lp820
g467
ag467
ag467
ag467
aa(lp821
g467
ag467
ag474
ag467
aa(lp822
g467
ag467
ag467
ag467
aa(lp823
g474
ag467
ag467
ag467
aa(lp824
g467
ag467
ag467
ag467
aa(lp825
g467
ag467
ag471
ag467
aa(lp826
g467
ag467
ag467
ag467
aa(lp827
g467
ag474
ag467
ag467
aa(lp828
g467
ag467
ag467
ag467
aa(lp829
g467
ag471
ag467
ag467
aa(lp830
g467
ag467
ag467
ag467
aa(lp831
g467
ag467
ag471
ag467
aa(lp832
g467
ag467
ag467
ag467
aa(lp833
g467
ag474
ag467
ag467
aa(lp834
g467
ag467
ag467
ag467
aa(lp835
g467
ag471
ag467
ag467
aa(lp836
g467
ag467
ag467
ag467
aaa(lp837
(lp838
g467
ag467
ag467
ag467
aa(lp839
g467
ag467
ag474
ag467
aa(lp840
g467
ag467
ag467
ag467
aa(lp841
g474
ag467
ag467
ag467
aa(lp842
g467
ag467
ag467
ag467
aa(lp843
g467
ag467
ag471
ag467
aa(lp844
g467
ag467
ag467
ag467
aa(lp845
g467
ag471
ag467
ag467
aa(lp846
g467
ag467
ag467
ag467
aa(lp847
g474
ag467
ag467
ag467
aa(lp848
g467
ag467
ag467
ag467
aa(lp849
S'4'
p850
ag467
ag467
ag467
aa(lp851
g467
ag467
ag467
ag467
aa(lp852
g513
ag467
ag467
ag467
aa(lp853
g467
ag467
ag467
ag467
aa(lp854
g467
ag467
ag467
ag467
aa(lp855
g467
ag467
ag467
ag467
aa(lp856
g467
ag467
ag467
ag467
aa(lp857
g467
ag467
ag467
ag467
aa(lp858
g501
ag501
ag501
aS'2'
p859
aa(lp860
g467
ag467
ag467
ag467
aa(lp861
g501
ag501
ag501
aS'4'
p862
aa(lp863
g467
ag467
ag467
ag467
aa(lp864
g467
ag467
ag474
ag467
aa(lp865
g467
ag467
ag467
ag467
aa(lp866
g467
ag467
ag471
ag467
aa(lp867
g467
ag467
ag467
ag467
aa(lp868
g467
ag474
ag467
ag467
aa(lp869
g467
ag467
ag467
ag467
aa(lp870
g467
ag471
ag467
ag467
aa(lp871
g467
ag467
ag467
ag467
aa(lp872
g467
ag468
ag467
ag467
aa(lp873
g467
ag467
ag467
ag467
aaa(lp874
(lp875
g467
ag467
ag467
ag467
aa(lp876
g474
ag467
ag467
ag467
aa(lp877
g467
ag467
ag467
ag467
aa(lp878
g467
ag471
ag467
ag467
aa(lp879
g467
ag467
ag467
ag467
aa(lp880
g467
ag467
ag471
ag467
aa(lp881
g467
ag467
ag467
ag467
aa(lp882
g467
ag474
ag467
ag467
aa(lp883
g467
ag467
ag467
ag467
aa(lp884
g467
ag471
ag467
ag467
aa(lp885
g467
ag467
ag467
ag467
aa(lp886
g467
ag468
ag467
ag467
aa(lp887
g467
ag467
ag467
ag467
aa(lp888
g474
ag467
ag467
ag467
aa(lp889
g467
ag467
ag467
ag467
aa(lp890
g471
ag467
ag467
ag467
aa(lp891
g467
ag467
ag467
ag467
aa(lp892
g468
ag467
ag467
ag467
aa(lp893
g467
ag467
ag467
ag467
aa(lp894
g474
ag467
ag467
ag467
aa(lp895
g467
ag467
ag467
ag467
aa(lp896
g467
ag471
ag467
ag467
aa(lp897
g467
ag467
ag467
ag467
aa(lp898
g467
ag468
ag467
ag467
aa(lp899
g467
ag467
ag467
ag467
aa(lp900
g474
ag467
ag467
ag467
aa(lp901
g467
ag467
ag467
ag467
aa(lp902
g471
ag467
ag467
ag467
aa(lp903
g467
ag467
ag467
ag467
aa(lp904
g468
ag467
ag467
ag467
aa(lp905
g467
ag467
ag467
ag467
aa(lp906
g513
ag467
ag467
ag467
aa(lp907
g467
ag467
ag467
ag467
aaa(lp908
(lp909
g467
ag467
ag467
ag467
aa(lp910
S'6'
p911
ag467
ag467
ag467
aa(lp912
g467
ag467
ag467
ag467
aa(lp913
S'5'
p914
ag501
ag501
ag501
aa(lp915
g467
ag467
ag467
ag467
aa(lp916
g850
ag467
ag467
ag467
aa(lp917
g467
ag467
ag467
ag467
aa(lp918
g513
ag467
ag467
ag467
aa(lp919
g467
ag467
ag467
ag467
aa(lp920
g513
ag467
ag467
ag467
aa(lp921
g467
ag467
ag467
ag467
aa(lp922
g468
ag467
ag467
ag467
aa(lp923
g467
ag467
ag467
ag467
aa(lp924
g471
ag467
ag467
ag467
aa(lp925
g467
ag467
ag467
ag467
aa(lp926
g468
ag467
ag467
ag467
aa(lp927
g467
ag467
ag467
ag467
aa(lp928
g468
ag467
ag467
ag467
aa(lp929
g467
ag467
ag467
ag467
aa(lp930
g474
ag467
ag467
ag467
aa(lp931
g467
ag467
ag467
ag467
aa(lp932
g467
ag471
ag467
ag467
aa(lp933
g467
ag467
ag467
ag467
aa(lp934
g467
ag474
ag467
ag467
aa(lp935
g467
ag467
ag467
ag467
aa(lp936
g467
ag467
ag471
ag467
aa(lp937
g467
ag467
ag467
ag467
aa(lp938
g501
ag501
ag501
ag859
aa(lp939
g467
ag467
ag467
ag467
aa(lp940
g501
ag501
ag501
ag862
aa(lp941
g467
ag467
ag467
ag467
aa(lp942
g501
ag501
aS'0'
p943
ag501
aa(lp944
g467
ag467
ag467
ag467
aaa(lp945
(lp946
g467
ag467
ag467
ag467
aa(lp947
g467
ag467
ag471
ag467
aa(lp948
g467
ag467
ag467
ag467
aa(lp949
g501
ag501
ag859
ag501
aa(lp950
g467
ag467
ag467
ag467
aa(lp951
g467
ag467
ag471
ag467
aa(lp952
g467
ag467
ag467
ag467
aa(lp953
g467
ag471
ag467
ag467
aa(lp954
g467
ag467
ag467
ag467
aa(lp955
g474
ag467
ag467
ag467
aa(lp956
g467
ag467
ag467
ag467
aa(lp957
g471
ag467
ag467
ag467
aa(lp958
g467
ag467
ag467
ag467
aa(lp959
g468
ag467
ag467
ag467
aa(lp960
g467
ag467
ag467
ag467
aa(lp961
g474
ag467
ag467
ag467
aa(lp962
g467
ag467
ag467
ag467
aa(lp963
g471
ag467
ag467
ag467
aa(lp964
g467
ag467
ag467
ag467
aa(lp965
g467
ag468
ag467
ag467
aa(lp966
g467
ag467
ag467
ag467
aa(lp967
g467
ag467
ag471
ag467
aa(lp968
g467
ag467
ag467
ag467
aa(lp969
g467
ag467
ag474
ag467
aa(lp970
g467
ag467
ag467
ag467
aa(lp971
g501
ag501
ag501
ag862
aa(lp972
g467
ag467
ag467
ag467
aa(lp973
g501
ag501
ag501
ag943
aa(lp974
g467
ag467
ag467
ag467
aa(lp975
g501
ag501
ag501
ag859
aa(lp976
g467
ag467
ag467
ag467
aa(lp977
g501
ag501
ag501
ag862
aa(lp978
g467
ag467
ag467
ag467
aaa(lp979
(lp980
g467
ag467
ag467
ag467
aa(lp981
g501
ag501
ag859
ag501
aa(lp982
g467
ag467
ag467
ag467
aa(lp983
g501
ag501
ag501
ag943
aa(lp984
g467
ag467
ag467
ag467
aa(lp985
g501
ag501
ag501
ag862
aa(lp986
g467
ag467
ag467
ag467
aa(lp987
g467
ag467
ag471
ag467
aa(lp988
g467
ag467
ag467
ag467
aa(lp989
g467
ag468
ag467
ag467
aa(lp990
g467
ag467
ag467
ag467
aa(lp991
g474
ag467
ag467
ag467
aa(lp992
g467
ag467
ag467
ag467
aa(lp993
g471
ag467
ag467
ag467
aa(lp994
g467
ag467
ag467
ag467
aa(lp995
g467
ag468
ag467
ag467
aa(lp996
g467
ag467
ag467
ag467
aa(lp997
g850
ag467
ag467
ag467
aa(lp998
g467
ag467
ag467
ag467
aa(lp999
g771
ag467
ag467
ag467
aa(lp1000
g467
ag467
ag467
ag467
aa(lp1001
g474
ag467
ag467
ag467
aa(lp1002
g467
ag467
ag467
ag467
aa(lp1003
g771
ag467
ag467
ag467
aa(lp1004
g467
ag467
ag467
ag467
aa(lp1005
g771
ag467
ag467
ag467
aa(lp1006
g467
ag467
ag467
ag467
aa(lp1007
g474
ag467
ag467
ag467
aa(lp1008
g467
ag467
ag467
ag467
aa(lp1009
g467
ag850
ag467
ag467
aa(lp1010
g467
ag467
ag467
ag467
aa(lp1011
g474
ag467
ag467
ag467
aa(lp1012
g467
ag467
ag467
ag467
aaa(lp1013
(lp1014
g467
ag467
ag467
ag467
aa(lp1015
g474
ag467
ag467
ag467
aa(lp1016
g467
ag467
ag467
ag467
aa(lp1017
g467
ag468
ag467
ag467
aa(lp1018
g467
ag467
ag467
ag467
aa(lp1019
g467
ag471
ag467
ag467
aa(lp1020
g467
ag467
ag467
ag467
aa(lp1021
g467
ag468
ag467
ag467
aa(lp1022
g467
ag467
ag467
ag467
aa(lp1023
g467
ag468
ag467
ag467
aa(lp1024
g467
ag467
ag467
ag467
aa(lp1025
g467
ag474
ag467
ag467
aa(lp1026
g467
ag467
ag467
ag467
aa(lp1027
g467
ag467
ag771
ag467
aa(lp1028
g467
ag467
ag467
ag467
aa(lp1029
g501
ag501
ag501
ag862
aa(lp1030
g467
ag467
ag467
ag467
aa(lp1031
g501
ag501
ag501
ag859
aa(lp1032
g467
ag467
ag467
ag467
aa(lp1033
g467
ag467
ag771
ag467
aa(lp1034
g467
ag467
ag467
ag467
aa(lp1035
g467
ag474
ag467
ag467
aa(lp1036
g467
ag467
ag467
ag467
aa(lp1037
g467
ag468
ag467
ag467
aa(lp1038
g467
ag467
ag467
ag467
aa(lp1039
g474
ag467
ag467
ag467
aa(lp1040
g467
ag467
ag467
ag467
aa(lp1041
g850
ag467
ag467
ag467
aa(lp1042
g467
ag467
ag467
ag467
aa(lp1043
g513
ag467
ag467
ag467
aa(lp1044
g467
ag467
ag467
ag467
aa(lp1045
g850
ag467
ag467
ag467
aa(lp1046
g467
ag467
ag467
ag467
aaa(lp1047
(lp1048
g467
ag467
ag467
ag467
aa(lp1049
g513
ag467
ag467
ag467
aa(lp1050
g467
ag467
ag467
ag467
aa(lp1051
g474
ag467
ag467
ag467
aa(lp1052
g467
ag467
ag467
ag467
aa(lp1053
g467
ag471
ag467
ag467
aa(lp1054
g467
ag467
ag467
ag467
aa(lp1055
g467
ag474
ag467
ag467
aa(lp1056
g467
ag467
ag467
ag467
aa(lp1057
g467
ag471
ag467
ag467
aa(lp1058
g467
ag467
ag467
ag467
aa(lp1059
g474
ag467
ag467
ag467
aa(lp1060
g467
ag467
ag467
ag467
aa(lp1061
g467
ag467
ag471
ag467
aa(lp1062
g467
ag467
ag467
ag467
aa(lp1063
g467
ag471
ag467
ag467
aa(lp1064
g467
ag467
ag467
ag467
aa(lp1065
g474
ag467
ag467
ag467
aa(lp1066
g467
ag467
ag467
ag467
aa(lp1067
g513
ag467
ag467
ag467
aa(lp1068
g467
ag467
ag467
ag467
aa(lp1069
g850
ag467
ag467
ag467
aa(lp1070
g467
ag467
ag467
ag467
aa(lp1071
g471
ag467
ag467
ag467
aa(lp1072
g467
ag467
ag467
ag467
aa(lp1073
g474
ag467
ag467
ag467
aa(lp1074
g467
ag467
ag467
ag467
aa(lp1075
g467
ag468
ag467
ag467
aa(lp1076
g467
ag467
ag467
ag467
aa(lp1077
g467
ag471
ag467
ag467
aa(lp1078
g467
ag467
ag467
ag467
aa(lp1079
g467
ag474
ag467
ag467
aa(lp1080
g467
ag467
ag467
ag467
aaa(lp1081
(lp1082
g467
ag467
ag467
ag467
aa(lp1083
g467
ag467
ag471
ag467
aa(lp1084
g467
ag467
ag467
ag467
aa(lp1085
g467
ag467
ag467
ag467
aa(lp1086
g467
ag467
ag467
ag467
aa(lp1087
g468
ag467
ag467
ag467
aa(lp1088
g467
ag467
ag467
ag467
aa(lp1089
g471
ag467
ag467
ag467
aa(lp1090
g467
ag467
ag467
ag467
aa(lp1091
g474
ag467
ag467
ag467
aa(lp1092
g467
ag467
ag467
ag467
aa(lp1093
g467
ag468
ag467
ag467
aa(lp1094
g467
ag467
ag467
ag467
aa(lp1095
g467
ag471
ag467
ag467
aa(lp1096
g467
ag467
ag467
ag467
aa(lp1097
g467
ag474
ag467
ag467
aa(lp1098
g467
ag467
ag467
ag467
aa(lp1099
g467
ag467
ag471
ag467
aa(lp1100
g467
ag467
ag467
ag467
aa(lp1101
g468
ag467
ag467
ag467
aa(lp1102
g467
ag467
ag467
ag467
aa(lp1103
g471
ag467
ag467
ag467
aa(lp1104
g467
ag467
ag467
ag467
aa(lp1105
g474
ag467
ag467
ag467
aa(lp1106
g467
ag467
ag467
ag467
aa(lp1107
g467
ag468
ag467
ag467
aa(lp1108
g467
ag467
ag467
ag467
aa(lp1109
g467
ag471
ag467
ag467
aa(lp1110
g467
ag467
ag467
ag467
aa(lp1111
g467
ag474
ag467
ag467
aa(lp1112
g467
ag467
ag467
ag467
aa(lp1113
g467
ag467
ag471
ag467
aa(lp1114
g467
ag467
ag467
ag467
aaa(lp1115
(lp1116
g467
ag467
ag467
ag467
aa(lp1117
g174
ag174
ag178
ag174
aa(lp1118
g467
ag467
ag467
ag467
aa(lp1119
g859
ag501
ag501
ag501
aa(lp1120
g467
ag467
ag467
ag467
aa(lp1121
g474
ag467
ag467
ag467
aa(lp1122
g467
ag467
ag467
ag467
aa(lp1123
g467
ag468
ag467
ag467
aa(lp1124
g467
ag467
ag467
ag467
aa(lp1125
g467
ag471
ag467
ag467
aa(lp1126
g467
ag467
ag467
ag467
aa(lp1127
g467
ag474
ag467
ag467
aa(lp1128
g467
ag467
ag467
ag467
aa(lp1129
g467
ag467
ag471
ag467
aa(lp1130
g467
ag467
ag467
ag467
aa(lp1131
g467
ag467
ag474
ag467
aa(lp1132
g467
ag467
ag467
ag467
aa(lp1133
g467
ag467
ag467
ag850
aa(lp1134
g467
ag467
ag467
ag467
aa(lp1135
g943
ag501
ag501
ag501
aa(lp1136
g467
ag467
ag467
ag467
aa(lp1137
g501
aS'3'
p1138
ag501
ag501
aa(lp1139
g467
ag467
ag467
ag467
aa(lp1140
g501
ag859
ag501
ag501
aa(lp1141
g467
ag467
ag467
ag467
aa(lp1142
g501
ag943
ag501
ag501
aa(lp1143
g467
ag467
ag467
ag467
aa(lp1144
g501
ag501
ag859
ag501
aa(lp1145
g467
ag467
ag467
ag467
aa(lp1146
g501
ag501
ag943
ag501
aa(lp1147
g467
ag467
ag467
ag467
aa(lp1148
g501
ag501
ag501
ag862
aa(lp1149
g467
ag467
ag467
ag467
aaa(lp1150
(lp1151
g467
ag467
ag467
ag467
aa(lp1152
g467
ag467
ag467
ag471
aa(lp1153
g467
ag467
ag467
ag467
aa(lp1154
g467
ag468
ag467
ag467
aa(lp1155
g467
ag467
ag467
ag467
aa(lp1156
g467
ag471
ag467
ag467
aa(lp1157
g467
ag467
ag467
ag467
aa(lp1158
g467
ag474
ag467
ag467
aa(lp1159
g467
ag467
ag467
ag467
aa(lp1160
g467
ag471
ag467
ag467
aa(lp1161
g467
ag467
ag467
ag467
aa(lp1162
g474
ag467
ag467
ag467
aa(lp1163
g467
ag467
ag467
ag467
aa(lp1164
g467
ag467
ag471
ag467
aa(lp1165
g467
ag467
ag467
ag467
aa(lp1166
g474
ag467
ag467
ag467
aa(lp1167
g467
ag467
ag467
ag467
aa(lp1168
g467
ag474
ag467
ag467
aa(lp1169
g467
ag467
ag467
ag467
aa(lp1170
g474
ag467
ag467
ag467
aa(lp1171
g467
ag467
ag467
ag467
aa(lp1172
g467
ag471
ag467
ag467
aa(lp1173
g467
ag467
ag467
ag467
aa(lp1174
g474
ag467
ag467
ag467
aa(lp1175
g467
ag467
ag467
ag467
aa(lp1176
g467
ag468
ag467
ag467
aa(lp1177
g467
ag467
ag467
ag467
aa(lp1178
g474
ag467
ag467
ag467
aa(lp1179
g467
ag467
ag467
ag467
aa(lp1180
g467
ag474
ag467
ag467
aa(lp1181
g467
ag467
ag467
ag467
aa(lp1182
g474
ag467
ag467
ag467
aa(lp1183
g467
ag467
ag467
ag467
aaa(lp1184
(lp1185
g467
ag467
ag467
ag467
aa(lp1186
g174
ag175
ag174
ag174
aa(lp1187
g467
ag467
ag467
ag467
aa(lp1188
g474
ag467
ag467
ag467
aa(lp1189
g467
ag467
ag467
ag467
aa(lp1190
g467
ag467
ag471
ag467
aa(lp1191
g467
ag467
ag467
ag467
aa(lp1192
g474
ag467
ag467
ag467
aa(lp1193
g467
ag467
ag467
ag467
aa(lp1194
g467
ag468
ag467
ag467
aa(lp1195
g467
ag467
ag467
ag467
aa(lp1196
g474
ag467
ag467
ag467
aa(lp1197
g467
ag467
ag467
ag467
aa(lp1198
g467
ag474
ag467
ag467
aa(lp1199
g467
ag467
ag467
ag467
aa(lp1200
g474
ag467
ag467
ag467
aa(lp1201
g467
ag467
ag467
ag467
aa(lp1202
g467
ag471
ag467
ag467
aa(lp1203
g467
ag467
ag467
ag467
aa(lp1204
g474
ag467
ag467
ag467
aa(lp1205
g467
ag467
ag467
ag467
aa(lp1206
g467
ag467
ag471
ag467
aa(lp1207
g467
ag467
ag467
ag467
aa(lp1208
g474
ag467
ag467
ag467
aa(lp1209
g467
ag467
ag467
ag467
aa(lp1210
g467
ag468
ag467
ag467
aa(lp1211
g467
ag467
ag467
ag467
aa(lp1212
g474
ag467
ag467
ag467
aa(lp1213
g467
ag467
ag467
ag467
aa(lp1214
g467
ag474
ag467
ag467
aa(lp1215
g467
ag467
ag467
ag467
aa(lp1216
g474
ag467
ag467
ag467
aa(lp1217
g467
ag467
ag467
ag467
aaa(lp1218
(lp1219
g467
ag467
ag467
ag467
aa(lp1220
g467
ag471
ag467
ag467
aa(lp1221
g467
ag467
ag467
ag467
aa(lp1222
g474
ag467
ag467
ag467
aa(lp1223
g467
ag467
ag467
ag467
aa(lp1224
g467
ag467
ag471
ag467
aa(lp1225
g467
ag467
ag467
ag467
aa(lp1226
g474
ag467
ag467
ag467
aa(lp1227
g467
ag467
ag467
ag467
aa(lp1228
g467
ag474
ag467
ag467
aa(lp1229
g467
ag467
ag467
ag467
aa(lp1230
g474
ag467
ag467
ag467
aa(lp1231
g467
ag467
ag467
ag467
aa(lp1232
g467
ag471
ag467
ag467
aa(lp1233
g467
ag467
ag467
ag467
aa(lp1234
g474
ag467
ag467
ag467
aa(lp1235
g467
ag467
ag467
ag467
aa(lp1236
g467
ag468
ag467
ag467
aa(lp1237
g467
ag467
ag467
ag467
aa(lp1238
g474
ag467
ag467
ag467
aa(lp1239
g467
ag467
ag467
ag467
aa(lp1240
g467
ag513
ag467
ag467
aa(lp1241
g467
ag467
ag467
ag467
aa(lp1242
g474
ag467
ag467
ag467
aa(lp1243
g467
ag467
ag467
ag467
aa(lp1244
g467
ag546
ag467
ag467
aa(lp1245
g467
ag467
ag467
ag467
aa(lp1246
g474
ag467
ag467
ag467
aa(lp1247
g467
ag467
ag467
ag467
aa(lp1248
g467
ag467
ag471
ag467
aa(lp1249
g467
ag467
ag467
ag467
aa(lp1250
g474
ag467
ag467
ag467
aa(lp1251
g467
ag467
ag467
ag467
aaa(lp1252
(lp1253
g467
ag467
ag467
ag467
aa(lp1254
g467
ag513
ag467
ag467
aa(lp1255
g467
ag467
ag467
ag467
aa(lp1256
g474
ag467
ag467
ag467
aa(lp1257
g467
ag467
ag467
ag467
aa(lp1258
g467
ag546
ag467
ag467
aa(lp1259
g467
ag467
ag467
ag467
aa(lp1260
g474
ag467
ag467
ag467
aa(lp1261
g467
ag467
ag467
ag467
aa(lp1262
g467
ag549
ag467
ag467
aa(lp1263
g467
ag467
ag467
ag467
aa(lp1264
g474
ag467
ag467
ag467
aa(lp1265
g467
ag467
ag467
ag467
aa(lp1266
g467
ag467
ag471
ag467
aa(lp1267
g467
ag467
ag467
ag467
aa(lp1268
g474
ag467
ag467
ag467
aa(lp1269
g467
ag467
ag467
ag467
aa(lp1270
g467
ag546
ag467
ag467
aa(lp1271
g467
ag467
ag467
ag467
aa(lp1272
g474
ag467
ag467
ag467
aa(lp1273
g467
ag467
ag467
ag467
aa(lp1274
g467
ag549
ag467
ag467
aa(lp1275
g467
ag467
ag467
ag467
aa(lp1276
g474
ag467
ag467
ag467
aa(lp1277
g467
ag467
ag467
ag467
aa(lp1278
S'--'
p1279
aS'10'
p1280
aS'--'
p1281
aS'--'
p1282
aa(lp1283
g467
ag467
ag467
ag467
aa(lp1284
g474
ag467
ag467
ag467
aa(lp1285
g467
ag467
ag467
ag467
aa(lp1286
g467
ag546
ag467
ag467
aa(lp1287
g467
ag467
ag467
ag467
aa(lp1288
g474
ag467
ag467
ag467
aa(lp1289
g467
ag467
ag467
ag467
aaa(lp1290
(lp1291
g467
ag467
ag467
ag467
aa(lp1292
g467
ag549
ag467
ag467
aa(lp1293
g467
ag467
ag467
ag467
aa(lp1294
g474
ag467
ag467
ag467
aa(lp1295
g467
ag467
ag467
ag467
aa(lp1296
g467
ag546
ag467
ag467
aa(lp1297
g467
ag467
ag467
ag467
aa(lp1298
g474
ag467
ag467
ag467
aa(lp1299
g467
ag467
ag467
ag467
aa(lp1300
g467
ag549
ag467
ag467
aa(lp1301
g467
ag467
ag467
ag467
aa(lp1302
g474
ag467
ag467
ag467
aa(lp1303
g467
ag467
ag467
ag467
aa(lp1304
g467
ag513
ag467
ag467
aa(lp1305
g467
ag467
ag467
ag467
aa(lp1306
g474
ag467
ag467
ag467
aa(lp1307
g467
ag467
ag467
ag467
aa(lp1308
g467
ag546
ag467
ag467
aa(lp1309
g467
ag467
ag467
ag467
aa(lp1310
g474
ag467
ag467
ag467
aa(lp1311
g467
ag467
ag467
ag467
aa(lp1312
g467
ag513
ag467
ag467
aa(lp1313
g467
ag467
ag467
ag467
aa(lp1314
g474
ag467
ag467
ag467
aa(lp1315
g467
ag467
ag467
ag467
aa(lp1316
g467
ag546
ag467
ag467
aa(lp1317
g467
ag467
ag467
ag467
aa(lp1318
g474
ag467
ag467
ag467
aa(lp1319
g467
ag467
ag467
ag467
aa(lp1320
g467
ag468
ag467
ag467
aa(lp1321
g467
ag467
ag467
ag467
aa(lp1322
g474
ag467
ag467
ag467
aa(lp1323
g467
ag467
ag467
ag467
aaa(lp1324
(lp1325
g467
ag467
ag467
ag467
aa(lp1326
g467
ag513
ag467
ag467
aa(lp1327
g467
ag467
ag467
ag467
aa(lp1328
g474
ag467
ag467
ag467
aa(lp1329
g467
ag467
ag467
ag467
aa(lp1330
g467
ag468
ag467
ag467
aa(lp1331
g467
ag467
ag467
ag467
aa(lp1332
g474
ag467
ag467
ag467
aa(lp1333
g467
ag467
ag467
ag467
aa(lp1334
g467
ag513
ag467
ag467
aa(lp1335
g467
ag467
ag467
ag467
aa(lp1336
g474
ag467
ag467
ag467
aa(lp1337
g467
ag467
ag467
ag467
aa(lp1338
g467
ag471
ag467
ag467
aa(lp1339
g467
ag467
ag467
ag467
aa(lp1340
g474
ag467
ag467
ag467
aa(lp1341
g467
ag467
ag467
ag467
aa(lp1342
g467
ag468
ag467
ag467
aa(lp1343
g467
ag467
ag467
ag467
aa(lp1344
g474
ag467
ag467
ag467
aa(lp1345
g467
ag467
ag467
ag467
aa(lp1346
g467
ag471
ag467
ag467
aa(lp1347
g467
ag467
ag467
ag467
aa(lp1348
g474
ag467
ag467
ag467
aa(lp1349
g467
ag467
ag467
ag467
aa(lp1350
g467
ag468
ag467
ag467
aa(lp1351
g467
ag467
ag467
ag467
aa(lp1352
g474
ag467
ag467
ag467
aa(lp1353
g467
ag467
ag467
ag467
aa(lp1354
g467
ag474
ag467
ag467
aa(lp1355
g467
ag467
ag467
ag467
aa(lp1356
g474
ag467
ag467
ag467
aa(lp1357
g467
ag467
ag467
ag467
aaa(lp1358
(lp1359
g467
ag467
ag467
ag467
aa(lp1360
g467
ag471
ag467
ag467
aa(lp1361
g467
ag467
ag467
ag467
aa(lp1362
g474
ag467
ag467
ag467
aa(lp1363
g467
ag467
ag467
ag467
aa(lp1364
g467
ag467
ag471
ag467
aa(lp1365
g467
ag467
ag467
ag467
aa(lp1366
g467
ag474
ag467
ag467
aa(lp1367
g467
ag467
ag467
ag467
aa(lp1368
g501
aS'1'
p1369
ag501
ag501
aa(lp1370
g467
ag467
ag467
ag467
aa(lp1371
g501
ag501
ag859
ag501
aa(lp1372
g467
ag467
ag467
ag467
aa(lp1373
g501
ag859
ag501
ag501
aa(lp1374
g501
ag501
ag501
ag501
aa(lp1375
g501
ag501
ag859
ag501
aa(lp1376
g467
ag467
ag467
ag467
aa(lp1377
g501
ag1138
ag501
ag501
aa(lp1378
g467
ag467
ag467
ag467
aa(lp1379
g501
ag501
ag859
ag501
aa(lp1380
g467
ag467
ag467
ag467
aa(lp1381
g501
ag862
ag501
ag501
aa(lp1382
g467
ag467
ag467
ag467
aa(lp1383
g501
ag501
ag859
ag501
aa(lp1384
g467
ag467
ag467
ag467
aa(lp1385
g943
ag501
ag501
ag501
aa(lp1386
g467
ag467
ag467
ag467
aa(lp1387
g501
ag501
ag859
ag501
aa(lp1388
g467
ag467
ag467
ag467
aa(lp1389
g1369
ag501
ag501
ag501
aa(lp1390
g467
ag467
ag467
ag467
aa(lp1391
g501
ag501
ag859
ag501
aa(lp1392
g501
ag501
ag501
ag501
aaa(lp1393
(lp1394
g467
ag467
ag467
ag467
aa(lp1395
g859
ag501
ag501
ag501
aa(lp1396
g467
ag467
ag467
ag467
aa(lp1397
g501
ag501
ag859
ag501
aa(lp1398
g467
ag467
ag467
ag467
aa(lp1399
g1138
ag501
ag501
ag501
aa(lp1400
g467
ag467
ag467
ag467
aa(lp1401
g501
ag501
ag859
ag501
aa(lp1402
g467
ag467
ag467
ag467
aa(lp1403
g862
ag501
ag501
ag501
aa(lp1404
g467
ag467
ag467
ag467
aa(lp1405
g501
ag501
ag859
ag501
aa(lp1406
g467
ag467
ag467
ag467
aa(lp1407
g914
ag501
ag501
ag501
aa(lp1408
g467
ag467
ag467
ag467
aa(lp1409
g501
ag501
ag859
ag501
aa(lp1410
g467
ag467
ag467
ag467
aa(lp1411
g507
ag501
ag501
ag501
aa(lp1412
g467
ag467
ag467
ag467
aa(lp1413
g501
ag501
ag859
ag501
aa(lp1414
g467
ag467
ag467
ag467
aa(lp1415
g546
ag467
ag467
ag467
aa(lp1416
g467
ag467
ag467
ag467
aa(lp1417
g467
ag467
ag467
ag546
aa(lp1418
g467
ag467
ag467
ag467
aa(lp1419
g549
ag467
ag467
ag467
aa(lp1420
g467
ag467
ag467
ag467
aa(lp1421
g467
ag467
ag467
ag546
aa(lp1422
g467
ag467
ag467
ag467
aa(lp1423
g744
ag467
ag467
ag467
aa(lp1424
g467
ag467
ag467
ag467
aa(lp1425
g467
ag467
ag467
ag546
aa(lp1426
g467
ag467
ag467
ag467
aaa(lp1427
(lp1428
g467
ag467
ag467
ag467
aa(lp1429
S'10'
p1430
aS'--'
p1431
aS'--'
p1432
aS'--'
p1433
aa(lp1434
g467
ag467
ag467
ag467
aa(lp1435
g467
ag546
ag467
ag467
aa(lp1436
g467
ag467
ag467
ag467
aa(lp1437
g467
ag467
ag467
ag546
aa(lp1438
g467
ag467
ag467
ag467
aa(lp1439
g467
ag546
ag467
ag467
aa(lp1440
g467
ag467
ag467
ag467
aa(lp1441
S'10'
p1442
aS'--'
p1443
aS'--'
p1444
aS'--'
p1445
aa(lp1446
g467
ag467
ag467
ag467
aa(lp1447
g467
ag546
ag467
ag467
aa(lp1448
g467
ag467
ag467
ag467
aa(lp1449
S'10'
p1450
aS'--'
p1451
aS'--'
p1452
aS'--'
p1453
aa(lp1454
g467
ag467
ag467
ag467
aa(lp1455
g467
ag546
ag467
ag467
aa(lp1456
g467
ag467
ag467
ag467
aa(lp1457
S'10'
p1458
aS'--'
p1459
aS'--'
p1460
aS'--'
p1461
aa(lp1462
g467
ag467
ag467
ag467
aa(lp1463
g467
ag546
ag467
ag467
aa(lp1464
g467
ag467
ag467
ag467
aa(lp1465
g467
ag467
ag467
ag546
aa(lp1466
g467
ag467
ag467
ag467
aa(lp1467
g467
ag546
ag467
ag467
aa(lp1468
g467
ag467
ag467
ag467
aa(lp1469
S'10'
p1470
aS'--'
p1471
aS'--'
p1472
aS'--'
p1473
aa(lp1474
g467
ag467
ag467
ag467
aa(lp1475
g467
ag546
ag467
ag467
aa(lp1476
g467
ag467
ag467
ag467
aa(lp1477
S'10'
p1478
aS'--'
p1479
aS'--'
p1480
aS'--'
p1481
aa(lp1482
g467
ag467
ag467
ag467
aa(lp1483
g467
ag546
ag467
ag467
aa(lp1484
g467
ag467
ag467
ag467
aaa(lp1485
(lp1486
g467
ag467
ag467
ag467
aa(lp1487
S'10'
p1488
aS'--'
p1489
aS'--'
p1490
aS'--'
p1491
aa(lp1492
g467
ag467
ag467
ag467
aa(lp1493
g467
ag467
ag744
ag467
aa(lp1494
g467
ag467
ag467
ag467
aa(lp1495
g467
ag467
ag467
ag546
aa(lp1496
g467
ag467
ag467
ag467
aa(lp1497
g467
ag467
ag744
ag467
aa(lp1498
g467
ag467
ag467
ag467
aa(lp1499
S'10'
p1500
aS'--'
p1501
aS'--'
p1502
aS'--'
p1503
aa(lp1504
g467
ag467
ag467
ag467
aa(lp1505
g467
ag467
ag744
ag467
aa(lp1506
g467
ag467
ag467
ag467
aa(lp1507
S'10'
p1508
aS'--'
p1509
aS'--'
p1510
aS'--'
p1511
aa(lp1512
g467
ag467
ag467
ag467
aa(lp1513
g467
ag467
ag744
ag467
aa(lp1514
g467
ag467
ag467
ag467
aa(lp1515
S'10'
p1516
aS'--'
p1517
aS'--'
p1518
aS'--'
p1519
aa(lp1520
g467
ag467
ag467
ag467
aa(lp1521
g467
ag467
ag744
ag467
aa(lp1522
g467
ag467
ag467
ag467
aa(lp1523
g467
ag467
ag467
ag546
aa(lp1524
g467
ag467
ag467
ag467
aa(lp1525
g467
ag467
ag744
ag467
aa(lp1526
g467
ag467
ag467
ag467
aa(lp1527
S'10'
p1528
aS'--'
p1529
aS'--'
p1530
aS'--'
p1531
aa(lp1532
g467
ag467
ag467
ag467
aa(lp1533
g467
ag467
ag744
ag467
aa(lp1534
g467
ag467
ag467
ag467
aa(lp1535
S'10'
p1536
aS'--'
p1537
aS'--'
p1538
aS'--'
p1539
aa(lp1540
g467
ag467
ag467
ag467
aa(lp1541
g467
ag467
ag744
ag467
aa(lp1542
g467
ag467
ag467
ag467
aaa(lp1543
(lp1544
g467
ag467
ag467
ag467
aa(lp1545
g744
ag467
ag467
ag467
aa(lp1546
g467
ag467
ag467
ag467
aa(lp1547
g467
ag549
ag467
ag467
aa(lp1548
g467
ag467
ag467
ag467
aa(lp1549
g467
ag467
ag467
ag546
aa(lp1550
g467
ag467
ag467
ag467
aa(lp1551
g467
ag549
ag467
ag467
aa(lp1552
g467
ag467
ag467
ag467
aa(lp1553
g744
ag467
ag467
ag467
aa(lp1554
g467
ag467
ag467
ag467
aa(lp1555
g467
ag549
ag467
ag467
aa(lp1556
g467
ag467
ag467
ag467
aa(lp1557
g744
ag467
ag467
ag467
aa(lp1558
g467
ag467
ag467
ag467
aa(lp1559
g467
ag549
ag467
ag467
aa(lp1560
g467
ag467
ag467
ag467
aa(lp1561
g744
ag467
ag467
ag467
aa(lp1562
g467
ag467
ag467
ag467
aa(lp1563
g467
ag549
ag467
ag467
aa(lp1564
g467
ag467
ag467
ag467
aa(lp1565
g467
ag467
ag467
ag546
aa(lp1566
g467
ag467
ag467
ag467
aa(lp1567
g467
ag549
ag467
ag467
aa(lp1568
g467
ag467
ag467
ag467
aa(lp1569
g744
ag467
ag467
ag467
aa(lp1570
g467
ag467
ag467
ag467
aa(lp1571
g467
ag549
ag467
ag467
aa(lp1572
g467
ag467
ag467
ag467
aa(lp1573
g744
ag467
ag467
ag467
aa(lp1574
g467
ag467
ag467
ag467
aa(lp1575
g467
ag549
ag467
ag467
aa(lp1576
g467
ag467
ag467
ag467
aaa(lp1577
(lp1578
g467
ag467
ag467
ag467
aa(lp1579
g501
ag501
ag501
ag943
aa(lp1580
g467
ag467
ag467
ag467
aa(lp1581
g467
ag467
ag467
ag467
aa(lp1582
g467
ag467
ag467
ag467
aa(lp1583
g467
ag467
ag467
ag467
aa(lp1584
g467
ag467
ag467
ag467
aa(lp1585
S'10'
p1586
aS'7-'
p1587
aS'7-'
p1588
aS'--'
p1589
aa(lp1590
g467
ag467
ag467
ag467
aa(lp1591
g467
ag467
ag467
ag467
aa(lp1592
g467
ag467
ag467
ag467
aa(lp1593
g467
ag467
ag467
ag467
aa(lp1594
g467
ag467
ag467
ag467
aaa.