(lp0
(lp1
(lp2
S'-'
p3
ag3
ag3
ag3
aa(lp4
g3
ag3
aS'0'
p5
ag3
aa(lp6
g3
ag3
ag3
ag3
aa(lp7
g5
ag3
ag3
ag3
aa(lp8
g3
ag3
ag3
ag3
aa(lp9
g3
aS'3'
p10
ag3
ag3
aa(lp11
g3
ag3
ag3
ag3
aaa(lp12
(lp13
g3
ag3
ag3
ag3
aa(lp14
S'1'
p15
ag10
aS'2'
p16
ag5
aa(lp17
g3
ag3
ag3
ag3
aa(lp18
g3
ag3
ag3
ag3
aa(lp19
g3
ag3
ag3
ag3
aaa(lp20
(lp21
g3
ag3
ag3
ag3
aa(lp22
g15
ag5
ag5
ag5
aa(lp23
g3
ag3
ag3
ag3
aa(lp24
g3
ag3
ag3
ag3
aa(lp25
g5
ag3
ag3
ag5
aa(lp26
g3
ag3
ag3
ag3
aa(lp27
g15
ag3
ag3
ag5
aa(lp28
g3
ag3
ag3
ag3
aa(lp29
g5
ag3
ag3
ag5
aa(lp30
g3
ag3
ag3
ag3
aa(lp31
g3
ag10
ag3
ag5
aa(lp32
g3
ag3
ag3
ag3
aaa(lp33
(lp34
g3
ag3
ag3
ag3
aa(lp35
g3
ag15
ag3
ag16
aa(lp36
g3
ag3
ag3
ag3
aa(lp37
g3
ag3
ag3
ag3
aa(lp38
g3
ag3
ag3
ag3
aa(lp39
g5
ag3
ag3
ag16
aa(lp40
g3
ag3
ag3
ag3
aa(lp41
g5
ag3
ag3
ag16
aa(lp42
g3
ag3
ag3
ag3
aa(lp43
g3
ag3
ag3
ag3
aa(lp44
g3
ag3
ag3
ag3
aa(lp45
g10
ag3
ag3
ag16
aa(lp46
g3
ag3
ag3
ag3
aaa(lp47
(lp48
g3
ag3
ag3
ag3
aa(lp49
S'7'
p50
aS'5'
p51
aS'6'
p52
ag51
aa(lp53
g3
ag3
ag3
ag3
aa(lp54
g52
aS'4'
p55
ag51
ag55
aa(lp56
g3
ag3
ag3
ag3
aa(lp57
g51
ag10
ag55
ag10
aa(lp58
g3
ag3
ag3
ag3
aa(lp59
g3
ag3
ag3
ag3
aa(lp60
g3
ag3
ag3
ag3
aa(lp61
g10
ag3
ag3
ag10
aa(lp62
g3
ag3
ag3
ag3
aa(lp63
g51
ag3
ag3
ag10
aa(lp64
g3
ag3
ag3
ag3
aaa(lp65
(lp66
g3
ag3
ag3
ag3
aa(lp67
g10
ag3
ag3
ag10
aa(lp68
g3
ag3
ag3
ag3
aa(lp69
g15
ag3
ag3
ag5
aa(lp70
g3
ag3
ag3
ag3
aaa(lp71
(lp72
g3
ag3
ag3
ag3
aa(lp73
g5
ag15
ag5
ag16
aa(lp74
g3
ag3
ag3
ag3
aa(lp75
g3
ag3
ag3
ag3
aa(lp76
g3
ag3
ag3
ag3
aaa(lp77
(lp78
g3
ag3
ag3
ag3
aa(lp79
g15
ag5
ag5
ag5
aa(lp80
g3
ag3
ag3
ag3
aa(lp81
g3
ag3
ag5
ag3
aa(lp82
g3
ag3
ag3
ag3
aa(lp83
g5
ag3
ag3
ag3
aa(lp84
g3
ag3
ag3
ag3
aa(lp85
g3
ag10
ag3
ag3
aa(lp86
g3
ag3
ag3
ag3
aaa(lp87
(lp88
g3
ag3
ag3
ag3
aa(lp89
g15
ag10
ag16
ag5
aa(lp90
g3
ag3
ag3
ag3
aa(lp91
g3
ag3
ag3
ag3
aa(lp92
g3
ag3
ag3
ag3
aaa(lp93
(lp94
g3
ag3
ag3
ag3
aa(lp95
g15
ag5
ag5
ag5
aa(lp96
g3
ag3
ag3
ag3
aa(lp97
g3
ag3
ag3
ag3
aa(lp98
g5
ag3
ag3
ag5
aa(lp99
g3
ag3
ag3
ag3
aa(lp100
g15
ag3
ag3
ag5
aa(lp101
g3
ag3
ag3
ag3
aa(lp102
g5
ag3
ag3
ag5
aa(lp103
g3
ag3
ag3
ag3
aa(lp104
g3
ag10
ag3
ag5
aa(lp105
g3
ag3
ag3
ag3
aaa(lp106
(lp107
g3
ag3
ag3
ag3
aa(lp108
g3
ag15
ag3
ag16
aa(lp109
g3
ag3
ag3
ag3
aa(lp110
g3
ag3
ag3
ag3
aa(lp111
g3
ag3
ag3
ag3
aa(lp112
g5
ag3
ag3
ag16
aa(lp113
g3
ag3
ag3
ag3
aa(lp114
g5
ag3
ag3
ag16
aa(lp115
g3
ag3
ag3
ag3
aa(lp116
g3
ag3
ag3
ag3
aa(lp117
g3
ag3
ag3
ag3
aa(lp118
g10
ag3
ag3
ag16
aa(lp119
g3
ag3
ag3
ag3
aaa(lp120
(lp121
g3
ag3
ag3
ag3
aa(lp122
g50
ag51
ag52
ag51
aa(lp123
g3
ag3
ag3
ag3
aa(lp124
g52
ag55
ag51
ag55
aa(lp125
g3
ag3
ag3
ag3
aa(lp126
g51
ag10
ag55
ag10
aa(lp127
g3
ag3
ag3
ag3
aa(lp128
g3
ag3
ag3
ag3
aa(lp129
g10
ag3
ag3
ag10
aa(lp130
g3
ag3
ag3
ag3
aa(lp131
g10
ag3
ag3
ag10
aa(lp132
g3
ag3
ag3
ag3
aaa(lp133
(lp134
g3
ag3
ag3
ag3
aa(lp135
g15
ag3
ag3
ag5
aa(lp136
g3
ag3
ag3
ag3
aa(lp137
g5
ag3
ag3
ag5
aa(lp138
g3
ag3
ag3
ag3
aa(lp139
g3
ag5
ag3
ag5
aa(lp140
g3
ag3
ag3
ag3
aaa(lp141
(lp142
g3
ag3
ag3
ag3
aa(lp143
g3
ag15
ag3
ag16
aa(lp144
g3
ag3
ag3
ag3
aa(lp145
g3
ag3
ag3
ag3
aa(lp146
g3
ag3
ag3
ag3
aa(lp147
g3
ag15
ag3
ag3
aa(lp148
g3
ag3
ag3
ag3
aa(lp149
g51
ag3
ag3
ag16
aa(lp150
g3
ag3
ag3
ag3
aa(lp151
g10
ag3
ag3
ag16
aa(lp152
g3
ag3
ag3
ag3
aaa(lp153
(lp154
g3
ag3
ag3
ag3
aa(lp155
g10
ag15
ag16
ag5
aa(lp156
g3
ag3
ag3
ag3
aa(lp157
g3
ag3
ag3
ag3
aa(lp158
g15
ag3
ag3
ag5
aa(lp159
g3
ag3
ag3
ag3
aa(lp160
g15
ag3
ag3
ag5
aa(lp161
g3
ag3
ag3
ag3
aa(lp162
g3
ag3
ag3
ag3
aa(lp163
g3
ag3
ag15
ag3
aa(lp164
g3
ag3
ag3
ag3
aa(lp165
g3
ag3
ag16
ag3
aa(lp166
g3
ag3
ag3
ag3
aa(lp167
g10
ag3
ag3
ag3
aa(lp168
g3
ag3
ag3
ag3
aa(lp169
g15
ag3
ag3
ag3
aa(lp170
g3
ag3
ag3
ag3
aaa(lp171
(lp172
g3
ag3
ag3
ag3
aa(lp173
g5
ag15
ag5
ag16
aa(lp174
g3
ag3
ag3
ag3
aa(lp175
g3
ag3
ag3
ag3
aa(lp176
g3
ag3
ag3
ag3
aa(lp177
g3
ag15
ag3
ag16
aa(lp178
g3
ag3
ag3
ag3
aa(lp179
g51
ag3
ag3
ag16
aa(lp180
g3
ag3
ag3
ag3
aa(lp181
g10
ag3
ag3
ag16
aa(lp182
g3
ag3
ag3
ag3
aaa(lp183
(lp184
g3
ag3
ag3
ag3
aa(lp185
g10
ag15
ag16
ag5
aa(lp186
g3
ag3
ag3
ag3
aa(lp187
g3
ag3
ag3
ag3
aa(lp188
g15
ag3
ag3
ag5
aa(lp189
g3
ag3
ag3
ag3
aa(lp190
g15
ag3
ag3
ag5
aa(lp191
g3
ag3
ag3
ag3
aa(lp192
g3
ag3
ag3
ag3
aa(lp193
g3
ag3
ag15
ag3
aa(lp194
g3
ag3
ag3
ag3
aa(lp195
g3
ag3
ag16
ag3
aa(lp196
g3
ag3
ag3
ag3
aa(lp197
g10
ag3
ag3
ag3
aa(lp198
g3
ag3
ag3
ag3
aa(lp199
g15
ag3
ag3
ag3
aa(lp200
g3
ag3
ag3
ag3
aaa(lp201
(lp202
g3
ag3
ag3
ag3
aa(lp203
g3
ag3
ag3
ag5
aa(lp204
g3
ag3
ag3
ag3
aa(lp205
g15
ag15
ag16
ag5
aa(lp206
g3
ag3
ag3
ag3
aa(lp207
g3
ag3
ag3
ag3
aa(lp208
g3
ag3
ag3
ag3
aaa(lp209
(lp210
g3
ag3
ag3
ag3
aa(lp211
g15
ag5
ag5
ag5
aa(lp212
g3
ag3
ag3
ag3
aa(lp213
g3
ag3
ag5
ag3
aa(lp214
g3
ag3
ag3
ag3
aa(lp215
g5
ag3
ag3
ag3
aa(lp216
g3
ag3
ag3
ag3
aa(lp217
g3
ag10
ag3
ag3
aa(lp218
g3
ag3
ag3
ag3
aaa(lp219
(lp220
g3
ag3
ag3
ag3
aa(lp221
g15
ag10
ag16
ag5
aa(lp222
g3
ag3
ag3
ag3
aa(lp223
g3
ag3
ag3
ag3
aa(lp224
g3
ag3
ag3
ag3
aaa(lp225
(lp226
g3
ag3
ag3
ag3
aa(lp227
g15
ag5
ag5
ag5
aa(lp228
g3
ag3
ag3
ag3
aa(lp229
g3
ag3
ag3
ag3
aa(lp230
g5
ag3
ag3
ag5
aa(lp231
g3
ag3
ag3
ag3
aa(lp232
g15
ag3
ag3
ag5
aa(lp233
g3
ag3
ag3
ag3
aa(lp234
g5
ag3
ag3
ag5
aa(lp235
g3
ag3
ag3
ag3
aa(lp236
g3
ag10
ag3
ag5
aa(lp237
g3
ag3
ag3
ag3
aaa(lp238
(lp239
g3
ag3
ag3
ag3
aa(lp240
g3
ag15
ag3
ag16
aa(lp241
g3
ag3
ag3
ag3
aa(lp242
g3
ag3
ag3
ag3
aa(lp243
g3
ag3
ag3
ag3
aa(lp244
g5
ag3
ag3
ag16
aa(lp245
g3
ag3
ag3
ag3
aa(lp246
g5
ag3
ag3
ag16
aa(lp247
g3
ag3
ag3
ag3
aa(lp248
g3
ag3
ag3
ag3
aa(lp249
g3
ag3
ag3
ag3
aa(lp250
g10
ag3
ag3
ag16
aa(lp251
g3
ag3
ag3
ag3
aaa(lp252
(lp253
g3
ag3
ag3
ag3
aa(lp254
g50
ag51
ag52
ag51
aa(lp255
g3
ag3
ag3
ag3
aa(lp256
g52
ag55
ag51
ag55
aa(lp257
g3
ag3
ag3
ag3
aa(lp258
g51
ag10
ag55
ag10
aa(lp259
g3
ag3
ag3
ag3
aa(lp260
g3
ag3
ag3
ag3
aa(lp261
g10
ag3
ag3
ag10
aa(lp262
g3
ag3
ag3
ag3
aa(lp263
g10
ag3
ag3
ag10
aa(lp264
g3
ag3
ag3
ag3
aaa(lp265
(lp266
g3
ag3
ag3
ag3
aa(lp267
g15
ag3
ag3
ag5
aa(lp268
g3
ag3
ag3
ag3
aa(lp269
g5
ag3
ag3
ag5
aa(lp270
g3
ag3
ag3
ag3
aa(lp271
g3
ag5
ag3
ag5
aa(lp272
g3
ag3
ag3
ag3
aaa(lp273
(lp274
g3
ag3
ag3
ag3
aa(lp275
g3
ag15
ag3
ag16
aa(lp276
g3
ag3
ag3
ag3
aa(lp277
g3
ag3
ag3
ag3
aa(lp278
g3
ag3
ag3
ag3
aa(lp279
g3
ag3
ag15
ag3
aa(lp280
g3
ag3
ag3
ag3
aa(lp281
g3
ag3
ag16
ag3
aa(lp282
g3
ag3
ag3
ag3
aaa(lp283
(lp284
g3
ag3
ag3
ag3
aa(lp285
g15
ag15
ag16
ag5
aa(lp286
g3
ag3
ag3
ag3
aa(lp287
g3
ag3
ag3
ag3
aa(lp288
g3
ag3
ag3
ag3
aa(lp289
g3
ag3
ag15
ag3
aa(lp290
g3
ag3
ag3
ag3
aa(lp291
g3
ag3
ag16
ag3
aa(lp292
g3
ag3
ag3
ag3
aaa(lp293
(lp294
g3
ag3
ag3
ag3
aa(lp295
g15
ag15
ag15
ag5
aa(lp296
g3
ag3
ag3
ag3
aa(lp297
g3
ag3
ag3
ag3
aa(lp298
g3
ag3
ag3
ag3
aa(lp299
g3
ag3
ag5
ag3
aa(lp300
g3
ag3
ag3
ag3
aa(lp301
g3
ag3
ag15
ag3
aa(lp302
g3
ag3
ag3
ag3
aaa(lp303
(lp304
g3
ag3
ag3
ag3
aa(lp305
g5
ag15
ag5
ag16
aa(lp306
g3
ag3
ag3
ag3
aa(lp307
g3
ag3
ag3
ag3
aa(lp308
g3
ag3
ag3
ag3
aaa.