(lp0
(lp1
(lp2
S'-'
p3
ag3
ag3
ag3
aa(lp4
g3
aS'3'
p5
aS'0'
p6
ag6
aa(lp7
g3
ag3
ag3
ag3
aa(lp8
g3
ag3
ag3
ag6
aa(lp9
g3
ag3
ag3
ag3
aa(lp10
g3
aS'1'
p11
ag3
ag3
aa(lp12
g3
ag3
ag3
ag3
aa(lp13
g3
ag3
ag3
ag6
aa(lp14
g3
ag3
ag3
ag3
aa(lp15
g3
ag6
ag3
ag3
aa(lp16
g3
ag3
ag3
ag3
aa(lp17
g3
ag3
ag3
ag6
aa(lp18
g3
ag3
ag3
ag3
aa(lp19
g3
ag3
ag6
ag3
aa(lp20
g3
ag3
ag3
ag3
aa(lp21
g3
ag6
ag3
ag3
aa(lp22
g3
ag3
ag3
ag3
aaa(lp23
(lp24
g3
ag3
ag3
ag3
aa(lp25
g3
ag3
aS'2'
p26
ag6
aa(lp27
g3
ag3
ag3
ag3
aa(lp28
g3
ag6
ag3
ag3
aa(lp29
g3
ag3
ag3
ag3
aa(lp30
g3
ag3
ag3
ag6
aa(lp31
g3
ag3
ag3
ag3
aa(lp32
g3
ag3
ag26
ag3
aa(lp33
g3
ag3
ag3
ag3
aa(lp34
g3
ag3
ag6
ag6
aa(lp35
g3
ag3
ag3
ag3
aa(lp36
g3
ag3
ag3
ag6
aa(lp37
g3
ag3
ag3
ag3
aa(lp38
g3
ag3
ag6
ag3
aa(lp39
g3
ag3
ag3
ag3
aa(lp40
g3
ag6
ag3
ag3
aa(lp41
g3
ag3
ag3
ag3
aaa(lp42
(lp43
g3
ag3
ag3
ag3
aa(lp44
g3
ag5
ag6
ag6
aa(lp45
g3
ag3
ag3
ag3
aa(lp46
g3
ag3
ag3
ag6
aa(lp47
g3
ag3
ag3
ag3
aa(lp48
g3
ag11
ag3
ag3
aa(lp49
g3
ag3
ag3
ag3
aa(lp50
g3
ag3
ag3
ag6
aa(lp51
g3
ag3
ag3
ag3
aa(lp52
g3
ag6
ag3
ag3
aa(lp53
g3
ag3
ag3
ag3
aa(lp54
g3
ag3
ag3
ag6
aa(lp55
g3
ag3
ag3
ag3
aa(lp56
g3
ag3
ag6
ag3
aa(lp57
g3
ag3
ag3
ag3
aa(lp58
g3
ag6
ag3
ag3
aa(lp59
g3
ag3
ag3
ag3
aaa(lp60
(lp61
g3
ag3
ag3
ag3
aa(lp62
g3
ag3
ag26
ag6
aa(lp63
g3
ag3
ag3
ag3
aa(lp64
g3
ag6
ag3
ag3
aa(lp65
g3
ag3
ag3
ag3
aa(lp66
g3
ag3
ag3
ag6
aa(lp67
g3
ag3
ag3
ag3
aa(lp68
g3
ag3
ag26
ag3
aa(lp69
g3
ag3
ag3
ag3
aa(lp70
g3
ag3
ag6
ag6
aa(lp71
g3
ag3
ag3
ag3
aa(lp72
g3
ag3
ag3
ag6
aa(lp73
g3
ag3
ag3
ag3
aa(lp74
g3
ag3
ag6
ag3
aa(lp75
g3
ag3
ag3
ag3
aa(lp76
g3
ag6
ag3
ag3
aa(lp77
g3
ag3
ag3
ag3
aaa(lp78
(lp79
g3
ag3
ag3
ag3
aa(lp80
g6
ag11
ag6
ag26
aa(lp81
g3
ag3
ag3
ag3
aa(lp82
g3
ag3
ag3
ag26
aa(lp83
g3
ag3
ag3
ag3
aa(lp84
g3
ag5
ag3
ag3
aa(lp85
g3
ag3
ag3
ag3
aa(lp86
g3
ag3
ag3
ag26
aa(lp87
g3
ag3
ag3
ag3
aa(lp88
g3
ag11
ag3
ag3
aa(lp89
g3
ag3
ag3
ag3
aa(lp90
g3
ag3
ag3
ag26
aa(lp91
g3
ag3
ag3
ag3
aa(lp92
g3
ag3
ag6
ag3
aa(lp93
g3
ag3
ag3
ag3
aa(lp94
g3
ag11
ag3
ag3
aa(lp95
g3
ag3
ag3
ag3
aaa(lp96
(lp97
g3
ag3
ag3
ag3
aa(lp98
g3
ag5
ag6
ag6
aa(lp99
g3
ag3
ag3
ag3
aa(lp100
g5
ag3
ag3
ag3
aa(lp101
g3
ag3
ag3
ag3
aa(lp102
g3
ag5
ag3
ag3
aa(lp103
g3
ag3
ag3
ag3
aa(lp104
g3
ag3
ag6
ag3
aa(lp105
g3
ag3
ag3
ag3
aa(lp106
g3
ag6
ag26
ag6
aa(lp107
g3
ag3
ag3
ag3
aa(lp108
g3
ag3
ag26
ag3
aa(lp109
g3
ag3
ag3
ag3
aaa(lp110
(lp111
g3
ag3
ag3
ag3
aa(lp112
g3
ag5
ag6
ag6
aa(lp113
g3
ag3
ag3
ag3
aa(lp114
g3
ag3
ag3
ag6
aa(lp115
g3
ag3
ag3
ag3
aa(lp116
g3
ag3
ag6
ag3
aa(lp117
g3
ag3
ag3
ag3
aa(lp118
g3
ag11
ag3
ag3
aa(lp119
g3
ag3
ag3
ag3
aa(lp120
g3
ag6
ag6
ag26
aa(lp121
g3
ag3
ag3
ag3
aa(lp122
g3
ag3
ag6
ag3
aa(lp123
g3
ag3
ag3
ag3
aaa(lp124
(lp125
S'-'
p126
ag126
ag126
ag126
aa(lp127
g126
ag126
aS'2'
p128
aS'0'
p129
aa(lp130
g126
ag126
ag126
ag126
aa(lp131
g126
ag126
ag126
ag129
aa(lp132
g126
ag126
ag126
ag126
aa(lp133
g126
ag126
ag128
ag126
aa(lp134
g126
ag126
ag126
ag126
aa(lp135
S'3'
p136
ag126
ag126
ag126
aa(lp137
g126
ag126
ag126
ag126
aa(lp138
g128
ag126
ag126
ag126
aa(lp139
g126
ag126
ag126
ag126
aa(lp140
g126
ag136
ag126
ag126
aa(lp141
g126
ag126
ag126
ag126
aa(lp142
g126
ag126
ag128
ag126
aa(lp143
g126
ag126
ag126
ag126
aa(lp144
g126
ag126
ag126
ag129
aa(lp145
g126
ag126
ag126
ag126
aaa(lp146
(lp147
g3
ag3
ag3
ag3
aa(lp148
g3
ag5
ag6
ag6
aa(lp149
g3
ag3
ag3
ag3
aa(lp150
g3
ag3
ag3
ag6
aa(lp151
g3
ag3
ag3
ag3
aa(lp152
g3
ag11
ag3
ag3
aa(lp153
g3
ag3
ag3
ag3
aa(lp154
g3
ag3
ag3
ag6
aa(lp155
g3
ag3
ag3
ag3
aa(lp156
g3
ag6
ag3
ag3
aa(lp157
g3
ag3
ag3
ag3
aa(lp158
g3
ag3
ag3
ag6
aa(lp159
g3
ag3
ag3
ag3
aa(lp160
g3
ag3
ag6
ag3
aa(lp161
g3
ag3
ag3
ag3
aa(lp162
g3
ag6
ag3
ag3
aa(lp163
g3
ag3
ag3
ag3
aaa(lp164
(lp165
g3
ag3
ag3
ag3
aa(lp166
g3
ag3
ag26
ag6
aa(lp167
g3
ag3
ag3
ag3
aa(lp168
g3
ag6
ag3
ag3
aa(lp169
g3
ag3
ag3
ag3
aa(lp170
g3
ag3
ag3
ag6
aa(lp171
g3
ag3
ag3
ag3
aa(lp172
g3
ag3
ag26
ag3
aa(lp173
g3
ag3
ag3
ag3
aa(lp174
g3
ag3
ag6
ag6
aa(lp175
g3
ag3
ag3
ag3
aa(lp176
g3
ag3
ag3
ag6
aa(lp177
g3
ag3
ag3
ag3
aa(lp178
g3
ag3
ag6
ag3
aa(lp179
g3
ag3
ag3
ag3
aa(lp180
g3
ag6
ag3
ag3
aa(lp181
g3
ag3
ag3
ag3
aaa(lp182
(lp183
g3
ag3
ag3
ag3
aa(lp184
g3
ag5
ag6
ag6
aa(lp185
g3
ag3
ag3
ag3
aa(lp186
g3
ag3
ag3
ag6
aa(lp187
g3
ag3
ag3
ag3
aa(lp188
g3
ag11
ag3
ag3
aa(lp189
g3
ag3
ag3
ag3
aa(lp190
g3
ag3
ag3
ag6
aa(lp191
g3
ag3
ag3
ag3
aa(lp192
g3
ag6
ag3
ag3
aa(lp193
g3
ag3
ag3
ag3
aa(lp194
g3
ag3
ag3
ag6
aa(lp195
g3
ag3
ag3
ag3
aa(lp196
g3
ag3
ag6
ag3
aa(lp197
g3
ag3
ag3
ag3
aa(lp198
g3
ag6
ag3
ag3
aa(lp199
g3
ag3
ag3
ag3
aaa(lp200
(lp201
g3
ag3
ag3
ag3
aa(lp202
g3
ag3
ag26
ag6
aa(lp203
g3
ag3
ag3
ag3
aa(lp204
g3
ag6
ag3
ag3
aa(lp205
g3
ag3
ag3
ag3
aa(lp206
g3
ag3
ag3
ag6
aa(lp207
g3
ag3
ag3
ag3
aa(lp208
g3
ag3
ag26
ag3
aa(lp209
g3
ag3
ag3
ag3
aa(lp210
g3
ag3
ag6
ag6
aa(lp211
g3
ag3
ag3
ag3
aa(lp212
g3
ag3
ag3
ag6
aa(lp213
g3
ag3
ag3
ag3
aa(lp214
g3
ag3
ag6
ag3
aa(lp215
g3
ag3
ag3
ag3
aa(lp216
g3
ag6
ag3
ag3
aa(lp217
g3
ag3
ag3
ag3
aaa(lp218
(lp219
g3
ag3
ag3
ag3
aa(lp220
g6
ag11
ag6
ag26
aa(lp221
g3
ag3
ag3
ag3
aa(lp222
g3
ag3
ag3
ag26
aa(lp223
g3
ag3
ag3
ag3
aa(lp224
g3
ag5
ag3
ag3
aa(lp225
g3
ag3
ag3
ag3
aa(lp226
g3
ag3
ag3
ag26
aa(lp227
g3
ag3
ag3
ag3
aa(lp228
g3
ag11
ag3
ag3
aa(lp229
g3
ag3
ag3
ag3
aa(lp230
g3
ag3
ag3
ag26
aa(lp231
g3
ag3
ag3
ag3
aa(lp232
g3
ag3
ag6
ag3
aa(lp233
g3
ag3
ag3
ag3
aa(lp234
g3
ag11
ag3
ag3
aa(lp235
g3
ag3
ag3
ag3
aaa(lp236
(lp237
g126
ag126
ag126
ag126
aa(lp238
g128
ag136
aS'4'
p239
ag129
aa(lp240
g126
ag126
ag126
ag126
aa(lp241
g126
ag126
ag126
ag129
aa(lp242
g126
ag126
ag126
ag126
aa(lp243
g129
ag126
ag126
ag126
aa(lp244
g126
ag126
ag126
ag126
aa(lp245
g126
ag126
ag126
ag129
aa(lp246
g126
ag126
ag126
ag126
aa(lp247
g126
ag136
ag126
ag126
aa(lp248
g126
ag126
ag126
ag126
aa(lp249
g126
ag126
ag126
ag129
aa(lp250
g126
ag126
ag126
ag126
aa(lp251
g126
ag136
ag126
ag126
aa(lp252
g126
ag126
ag126
ag126
aa(lp253
g128
ag126
ag126
ag126
aa(lp254
g126
ag126
ag126
ag126
aaa(lp255
(lp256
g126
ag126
ag126
ag126
aa(lp257
g136
aS'1'
p258
ag128
ag128
aa(lp259
g126
ag126
ag126
ag126
aa(lp260
g126
ag126
ag126
ag128
aa(lp261
g126
ag126
ag126
ag126
aa(lp262
g126
ag126
ag128
ag126
aa(lp263
g126
ag126
ag126
ag126
aa(lp264
g128
ag126
ag126
ag126
aa(lp265
g126
ag126
ag126
ag126
aa(lp266
g129
ag126
ag126
ag126
aa(lp267
g126
ag126
ag126
ag126
aa(lp268
g126
ag126
ag126
ag128
aa(lp269
g126
ag126
ag126
ag126
aa(lp270
g126
ag129
ag126
ag126
aa(lp271
g126
ag126
ag126
ag126
aa(lp272
g126
ag126
ag126
ag128
aa(lp273
g126
ag126
ag126
ag126
aaa(lp274
(lp275
g126
ag126
ag126
ag126
aa(lp276
g126
ag136
ag128
ag129
aa(lp277
g126
ag126
ag126
ag126
aa(lp278
g126
ag126
ag126
ag129
aa(lp279
g126
ag126
ag126
ag126
aa(lp280
g126
ag126
ag128
ag126
aa(lp281
g126
ag126
ag126
ag126
aa(lp282
g136
ag126
ag126
ag126
aa(lp283
g126
ag126
ag126
ag126
aa(lp284
g128
ag126
ag126
ag126
aa(lp285
g126
ag126
ag126
ag126
aa(lp286
g129
ag126
ag126
ag126
aa(lp287
g126
ag126
ag126
ag126
aa(lp288
g128
ag126
ag126
ag126
aa(lp289
g126
ag126
ag126
ag126
aaa(lp290
(lp291
g3
ag3
ag3
ag3
aa(lp292
g5
ag11
ag6
ag26
aa(lp293
g3
ag3
ag3
ag3
aa(lp294
g3
ag3
ag3
ag26
aa(lp295
g3
ag3
ag3
ag3
aa(lp296
g3
ag11
ag3
ag3
aa(lp297
g3
ag3
ag3
ag3
aa(lp298
g3
ag3
ag3
ag26
aa(lp299
g3
ag3
ag3
ag3
aa(lp300
g3
ag11
ag3
ag3
aa(lp301
g3
ag3
ag3
ag3
aa(lp302
g3
ag3
ag3
ag26
aa(lp303
g3
ag3
ag3
ag3
aa(lp304
g3
ag3
ag6
ag3
aa(lp305
g3
ag3
ag3
ag3
aa(lp306
g3
ag6
ag3
ag3
aa(lp307
g3
ag3
ag3
ag3
aaa(lp308
(lp309
g3
ag3
ag3
ag3
aa(lp310
g3
ag5
ag6
ag6
aa(lp311
g3
ag3
ag3
ag3
aa(lp312
g3
ag3
ag3
ag6
aa(lp313
g3
ag3
ag3
ag3
aa(lp314
g3
ag3
ag6
ag3
aa(lp315
g3
ag3
ag3
ag3
aa(lp316
g3
ag5
ag3
ag3
aa(lp317
g3
ag3
ag3
ag3
aa(lp318
g5
ag3
ag3
ag3
aa(lp319
g3
ag3
ag3
ag3
aa(lp320
g3
ag3
ag3
ag3
aa(lp321
g3
ag3
ag6
ag3
aa(lp322
g3
ag3
ag3
ag3
aa(lp323
g3
ag3
ag26
ag3
aa(lp324
g3
ag3
ag3
ag3
aaa(lp325
(lp326
g3
ag3
ag3
ag3
aa(lp327
g3
ag3
ag26
ag6
aa(lp328
g3
ag3
ag3
ag3
aa(lp329
g3
ag3
ag3
ag3
aa(lp330
g3
ag3
ag3
ag6
aa(lp331
g3
ag3
ag3
ag3
aa(lp332
g3
ag3
ag26
ag3
aa(lp333
g3
ag3
ag3
ag3
aa(lp334
g3
ag5
ag3
ag3
aa(lp335
g3
ag3
ag3
ag3
aa(lp336
g3
ag3
ag3
ag6
aa(lp337
g3
ag3
ag3
ag3
aa(lp338
g3
ag3
ag26
ag3
aa(lp339
g3
ag3
ag3
ag3
aa(lp340
g3
ag11
ag3
ag3
aa(lp341
g3
ag3
ag3
ag3
aaa(lp342
(lp343
g3
ag3
ag3
ag3
aa(lp344
g3
ag11
ag6
ag6
aa(lp345
g3
ag3
ag3
ag3
aa(lp346
g3
ag3
ag3
ag6
aa(lp347
g3
ag3
ag3
ag3
aa(lp348
g3
ag6
ag3
ag3
aa(lp349
g3
ag3
ag3
ag3
aa(lp350
g3
ag3
ag3
ag6
aa(lp351
g3
ag3
ag3
ag3
aa(lp352
g3
ag3
ag6
ag3
aa(lp353
g3
ag3
ag3
ag3
aa(lp354
g3
ag6
ag3
ag3
aa(lp355
g3
ag3
ag3
ag3
aa(lp356
g6
ag3
ag3
ag3
aa(lp357
g3
ag3
ag3
ag3
aa(lp358
g26
ag3
ag3
ag3
aa(lp359
g3
ag3
ag3
ag3
aaa(lp360
(lp361
g3
ag3
ag3
ag3
aa(lp362
g5
ag11
ag6
ag26
aa(lp363
g3
ag3
ag3
ag3
aa(lp364
g3
ag3
ag3
ag26
aa(lp365
g3
ag3
ag3
ag3
aa(lp366
g3
ag11
ag3
ag3
aa(lp367
g3
ag3
ag3
ag3
aa(lp368
g3
ag3
ag3
ag26
aa(lp369
g3
ag3
ag3
ag3
aa(lp370
g3
ag11
ag3
ag3
aa(lp371
g3
ag3
ag3
ag3
aa(lp372
g3
ag3
ag3
ag26
aa(lp373
g3
ag3
ag3
ag3
aa(lp374
g3
ag3
ag6
ag3
aa(lp375
g3
ag3
ag3
ag3
aa(lp376
g3
ag6
ag3
ag3
aa(lp377
g3
ag3
ag3
ag3
aaa(lp378
(lp379
g3
ag3
ag3
ag3
aa(lp380
g3
ag5
ag6
ag6
aa(lp381
g3
ag3
ag3
ag3
aa(lp382
g3
ag3
ag3
ag6
aa(lp383
g3
ag3
ag3
ag3
aa(lp384
g3
ag3
ag6
ag3
aa(lp385
g3
ag3
ag3
ag3
aa(lp386
g3
ag5
ag3
ag3
aa(lp387
g3
ag3
ag3
ag3
aa(lp388
g5
ag3
ag3
ag3
aa(lp389
g3
ag3
ag3
ag3
aa(lp390
g3
ag3
ag6
ag3
aa(lp391
g3
ag3
ag3
ag3
aa(lp392
g3
ag3
ag26
ag3
aa(lp393
g3
ag3
ag3
ag3
aaa(lp394
(lp395
g3
ag3
ag3
ag3
aa(lp396
g3
ag3
aS'4'
p397
ag6
aa(lp398
g3
ag3
ag3
ag3
aa(lp399
g3
ag5
ag3
ag3
aa(lp400
g3
ag3
ag3
ag3
aa(lp401
g26
ag3
ag3
ag3
aa(lp402
g3
ag3
ag3
ag3
aa(lp403
g3
ag11
ag3
ag3
aa(lp404
g3
ag3
ag3
ag3
aa(lp405
g3
ag6
ag3
ag3
aa(lp406
g3
ag3
ag3
ag6
aa(lp407
g3
ag3
ag3
ag3
aa(lp408
g26
ag3
ag3
ag3
aa(lp409
g3
ag3
ag3
ag3
aa(lp410
g3
ag3
ag3
ag6
aa(lp411
g3
ag3
ag3
ag3
aaa(lp412
(lp413
g3
ag3
ag3
ag3
aa(lp414
g5
ag6
ag6
ag26
aa(lp415
g3
ag3
ag3
ag3
aa(lp416
g3
ag3
ag3
ag26
aa(lp417
g3
ag3
ag3
ag3
aa(lp418
g3
ag3
ag6
ag3
aa(lp419
g3
ag3
ag3
ag3
aa(lp420
g3
ag6
ag3
ag3
aa(lp421
g3
ag3
ag3
ag3
aa(lp422
g5
ag3
ag3
ag3
aa(lp423
g3
ag3
ag3
ag3
aa(lp424
g3
ag3
ag3
ag26
aa(lp425
g3
ag3
ag3
ag3
aa(lp426
g6
ag3
ag3
ag3
aa(lp427
g3
ag3
ag3
ag3
aa(lp428
g26
ag3
ag3
ag3
aa(lp429
g3
ag3
ag3
ag3
aaa(lp430
(lp431
g3
ag3
ag3
ag3
aa(lp432
g5
ag11
ag6
ag26
aa(lp433
g3
ag3
ag3
ag3
aa(lp434
g3
ag3
ag3
ag26
aa(lp435
g3
ag3
ag3
ag3
aa(lp436
g3
ag11
ag3
ag3
aa(lp437
g3
ag3
ag3
ag3
aa(lp438
g3
ag3
ag3
ag26
aa(lp439
g3
ag3
ag3
ag3
aa(lp440
g3
ag11
ag3
ag3
aa(lp441
g3
ag3
ag3
ag3
aa(lp442
g3
ag3
ag3
ag26
aa(lp443
g3
ag3
ag3
ag3
aa(lp444
g3
ag3
ag6
ag3
aa(lp445
g3
ag3
ag3
ag3
aa(lp446
g3
ag6
ag3
ag3
aa(lp447
g3
ag3
ag3
ag3
aaa(lp448
(lp449
g3
ag3
ag3
ag3
aa(lp450
g3
ag5
ag6
ag6
aa(lp451
g3
ag3
ag3
ag3
aa(lp452
g3
ag3
ag3
ag6
aa(lp453
g3
ag3
ag3
ag3
aa(lp454
g3
ag3
ag6
ag3
aa(lp455
g3
ag3
ag3
ag3
aa(lp456
g3
ag5
ag3
ag3
aa(lp457
g3
ag3
ag3
ag3
aa(lp458
g5
ag3
ag3
ag3
aa(lp459
g3
ag3
ag3
ag3
aa(lp460
g3
ag3
ag3
ag3
aa(lp461
g3
ag3
ag6
ag3
aa(lp462
g3
ag3
ag3
ag3
aa(lp463
g3
ag3
ag26
ag3
aa(lp464
g3
ag3
ag3
ag3
aaa(lp465
(lp466
g3
ag3
ag3
ag3
aa(lp467
g3
ag3
ag397
ag6
aa(lp468
g3
ag3
ag3
ag3
aa(lp469
g126
ag136
ag126
ag126
aa(lp470
g3
ag3
ag3
ag3
aa(lp471
g26
ag3
ag3
ag3
aa(lp472
g3
ag3
ag3
ag3
aa(lp473
g3
ag11
ag3
ag3
aa(lp474
g3
ag3
ag3
ag3
aa(lp475
g3
ag6
ag3
ag3
aa(lp476
g3
ag3
ag3
ag3
aa(lp477
g3
ag3
ag3
ag6
aa(lp478
g3
ag3
ag3
ag3
aa(lp479
g3
ag3
ag26
ag3
aa(lp480
g3
ag3
ag3
ag3
aaa(lp481
(lp482
g3
ag3
ag3
ag3
aa(lp483
g3
ag3
ag26
ag26
aa(lp484
g3
ag3
ag3
ag3
aa(lp485
g126
ag126
ag129
ag128
aa(lp486
g3
ag3
ag3
ag3
aaa(lp487
(lp488
g3
ag3
ag3
ag3
aa(lp489
g3
ag5
ag6
ag6
aa(lp490
g3
ag3
ag3
ag3
aa(lp491
g3
ag3
ag3
ag6
aa(lp492
g3
ag3
ag3
ag3
aa(lp493
g3
ag11
ag3
ag3
aa(lp494
g3
ag3
ag3
ag3
aa(lp495
g3
ag3
ag3
ag6
aa(lp496
g3
ag3
ag3
ag3
aa(lp497
g3
ag6
ag3
ag3
aa(lp498
g3
ag3
ag3
ag3
aa(lp499
g3
ag3
ag3
ag3
aa(lp500
g3
ag3
ag3
ag3
aa(lp501
g3
ag3
ag3
ag6
aa(lp502
g3
ag3
ag3
ag3
aaa(lp503
(lp504
g3
ag3
ag3
ag3
aa(lp505
g3
ag3
ag26
ag6
aa(lp506
g3
ag3
ag3
ag3
aa(lp507
g3
ag6
ag3
ag3
aa(lp508
g3
ag3
ag3
ag3
aa(lp509
g3
ag3
ag3
ag3
aa(lp510
g3
ag3
ag3
ag3
aa(lp511
g3
ag3
ag26
ag3
aa(lp512
g3
ag3
ag3
ag3
aa(lp513
g3
ag3
ag6
ag6
aa(lp514
g3
ag3
ag3
ag3
aa(lp515
g3
ag3
ag3
ag6
aa(lp516
g3
ag3
ag3
ag3
aa(lp517
g3
ag3
ag6
ag3
aa(lp518
g3
ag3
ag3
ag3
aa(lp519
g3
ag6
ag3
ag3
aa(lp520
g3
ag3
ag3
ag3
aaa(lp521
(lp522
g3
ag3
ag3
ag3
aa(lp523
g3
ag5
ag6
ag26
aa(lp524
g3
ag3
ag3
ag3
aa(lp525
g3
ag3
ag3
ag26
aa(lp526
g3
ag3
ag3
ag3
aa(lp527
g3
ag3
ag6
ag3
aa(lp528
g3
ag3
ag3
ag3
aa(lp529
g3
ag11
ag3
ag3
aa(lp530
g3
ag3
ag3
ag3
aa(lp531
g3
ag6
ag26
ag6
aa(lp532
g3
ag3
ag3
ag3
aa(lp533
g3
ag3
ag3
ag3
aa(lp534
g3
ag3
ag3
ag3
aa(lp535
g3
ag3
ag3
ag397
aa(lp536
g3
ag3
ag3
ag3
aaa(lp537
(lp538
g3
ag3
ag3
ag3
aa(lp539
g3
ag3
ag6
ag6
aa(lp540
g3
ag3
ag3
ag3
aaa.