(lp0
(lp1
(lp2
S'-'
p3
ag3
ag3
ag3
aa(lp4
g3
aS'3'
p5
aS'0'
p6
ag6
aa(lp7
g3
ag3
ag3
ag3
aa(lp8
g3
ag3
ag3
ag6
aa(lp9
g3
ag3
ag3
ag3
aa(lp10
g3
aS'1'
p11
ag3
ag3
aa(lp12
g3
ag3
ag3
ag3
aa(lp13
g3
ag3
ag3
ag6
aa(lp14
g3
ag3
ag3
ag3
aa(lp15
g3
ag6
ag3
ag3
aa(lp16
g3
ag3
ag3
ag3
aa(lp17
g3
ag3
ag3
ag6
aa(lp18
g3
ag3
ag3
ag3
aa(lp19
g3
ag3
ag6
ag3
aa(lp20
g3
ag3
ag3
ag3
aa(lp21
g3
ag6
ag3
ag3
aa(lp22
g3
ag3
ag3
ag3
aaa(lp23
(lp24
g3
ag3
ag3
ag3
aa(lp25
g3
ag3
aS'2'
p26
ag6
aa(lp27
g3
ag3
ag3
ag3
aa(lp28
g3
ag6
ag3
ag3
aa(lp29
g3
ag3
ag3
ag3
aa(lp30
g3
ag3
ag3
ag6
aa(lp31
g3
ag3
ag3
ag3
aa(lp32
g3
ag3
ag26
ag3
aa(lp33
g3
ag3
ag3
ag3
aa(lp34
g3
ag3
ag6
ag6
aa(lp35
g3
ag3
ag3
ag3
aa(lp36
g3
ag3
ag3
ag6
aa(lp37
g3
ag3
ag3
ag3
aa(lp38
g3
ag3
ag6
ag3
aa(lp39
g3
ag3
ag3
ag3
aa(lp40
g3
ag6
ag3
ag3
aa(lp41
g3
ag3
ag3
ag3
aaa(lp42
(lp43
g3
ag3
ag3
ag3
aa(lp44
g3
ag5
ag6
ag6
aa(lp45
g3
ag3
ag3
ag3
aa(lp46
g3
ag3
ag3
ag6
aa(lp47
g3
ag3
ag3
ag3
aa(lp48
g3
ag11
ag3
ag3
aa(lp49
g3
ag3
ag3
ag3
aa(lp50
g3
ag3
ag3
ag6
aa(lp51
g3
ag3
ag3
ag3
aa(lp52
g3
ag6
ag3
ag3
aa(lp53
g3
ag3
ag3
ag3
aa(lp54
g3
ag3
ag3
ag6
aa(lp55
g3
ag3
ag3
ag3
aa(lp56
g3
ag3
ag6
ag3
aa(lp57
g3
ag3
ag3
ag3
aa(lp58
g3
ag6
ag3
ag3
aa(lp59
g3
ag3
ag3
ag3
aaa(lp60
(lp61
g3
ag3
ag3
ag3
aa(lp62
g3
ag3
ag26
ag6
aa(lp63
g3
ag3
ag3
ag3
aa(lp64
g3
ag6
ag3
ag3
aa(lp65
g3
ag3
ag3
ag3
aa(lp66
g3
ag3
ag3
ag6
aa(lp67
g3
ag3
ag3
ag3
aa(lp68
g3
ag3
ag26
ag3
aa(lp69
g3
ag3
ag3
ag3
aa(lp70
g3
ag3
ag6
ag6
aa(lp71
g3
ag3
ag3
ag3
aa(lp72
g3
ag3
ag3
ag6
aa(lp73
g3
ag3
ag3
ag3
aa(lp74
g3
ag3
ag6
ag3
aa(lp75
g3
ag3
ag3
ag3
aa(lp76
g3
ag6
ag3
ag3
aa(lp77
g3
ag3
ag3
ag3
aaa(lp78
(lp79
g3
ag3
ag3
ag3
aa(lp80
g6
ag11
ag6
ag26
aa(lp81
g3
ag3
ag3
ag3
aa(lp82
g3
ag3
ag3
ag26
aa(lp83
g3
ag3
ag3
ag3
aa(lp84
g3
ag5
ag3
ag3
aa(lp85
g3
ag3
ag3
ag3
aa(lp86
g3
ag3
ag3
ag26
aa(lp87
g3
ag3
ag3
ag3
aa(lp88
g3
ag11
ag3
ag3
aa(lp89
g3
ag3
ag3
ag3
aa(lp90
g3
ag3
ag3
ag26
aa(lp91
g3
ag3
ag3
ag3
aa(lp92
g3
ag3
ag6
ag3
aa(lp93
g3
ag3
ag3
ag3
aa(lp94
g3
ag11
ag3
ag3
aa(lp95
g3
ag3
ag3
ag3
aaa(lp96
(lp97
g3
ag3
ag3
ag3
aa(lp98
g3
ag5
ag6
ag6
aa(lp99
g3
ag3
ag3
ag3
aa(lp100
g5
ag3
ag3
ag3
aa(lp101
g3
ag3
ag3
ag3
aa(lp102
g3
ag5
ag3
ag3
aa(lp103
g3
ag3
ag3
ag3
aa(lp104
g3
ag3
ag6
ag3
aa(lp105
g3
ag3
ag3
ag3
aa(lp106
g3
ag6
ag26
ag6
aa(lp107
g3
ag3
ag3
ag3
aa(lp108
g3
ag3
ag26
ag3
aa(lp109
g3
ag3
ag3
ag3
aaa(lp110
(lp111
g3
ag3
ag3
ag3
aa(lp112
g3
ag5
ag6
ag6
aa(lp113
g3
ag3
ag3
ag3
aa(lp114
g3
ag3
ag3
ag6
aa(lp115
g3
ag3
ag3
ag3
aa(lp116
g3
ag3
ag6
ag3
aa(lp117
g3
ag3
ag3
ag3
aa(lp118
g3
ag11
ag3
ag3
aa(lp119
g3
ag3
ag3
ag3
aa(lp120
g3
ag6
ag6
ag26
aa(lp121
g3
ag3
ag3
ag3
aa(lp122
g3
ag3
ag6
ag3
aa(lp123
g3
ag3
ag3
ag3
aaa(lp124
(lp125
g3
ag3
ag3
ag3
aa(lp126
g3
ag3
ag26
ag6
aa(lp127
g3
ag3
ag3
ag3
aa(lp128
g3
ag3
ag3
ag6
aa(lp129
g3
ag3
ag3
ag3
aa(lp130
g3
ag3
ag26
ag3
aa(lp131
g3
ag3
ag3
ag3
aa(lp132
g3
ag5
ag3
ag3
aa(lp133
g3
ag3
ag3
ag3
aa(lp134
g26
ag3
ag3
ag3
aa(lp135
g3
ag3
ag3
ag3
aa(lp136
g3
ag3
ag3
ag6
aa(lp137
g3
ag3
ag3
ag3
aa(lp138
g6
ag3
ag3
ag3
aa(lp139
g3
ag3
ag3
ag3
aa(lp140
g26
ag3
ag3
ag3
aa(lp141
g3
ag3
ag3
ag3
aaa(lp142
(lp143
g3
ag3
ag3
ag3
aa(lp144
g5
ag11
ag6
ag26
aa(lp145
g3
ag3
ag3
ag3
aa(lp146
g3
ag3
ag3
ag26
aa(lp147
g3
ag3
ag3
ag3
aa(lp148
g3
ag11
ag3
ag3
aa(lp149
g3
ag3
ag3
ag3
aa(lp150
g3
ag3
ag3
ag26
aa(lp151
g3
ag3
ag3
ag3
aa(lp152
g3
ag11
ag3
ag3
aa(lp153
g3
ag3
ag3
ag3
aa(lp154
g3
ag3
ag3
ag26
aa(lp155
g3
ag3
ag3
ag3
aa(lp156
g3
ag3
ag6
ag3
aa(lp157
g3
ag3
ag3
ag3
aa(lp158
g3
ag6
ag3
ag3
aa(lp159
g3
ag3
ag3
ag3
aaa(lp160
(lp161
g3
ag3
ag3
ag3
aa(lp162
g3
ag5
ag6
ag6
aa(lp163
g3
ag3
ag3
ag3
aa(lp164
g3
ag3
ag3
ag6
aa(lp165
g3
ag3
ag3
ag3
aa(lp166
g3
ag3
ag6
ag3
aa(lp167
g3
ag3
ag3
ag3
aa(lp168
g3
ag5
ag3
ag3
aa(lp169
g3
ag3
ag3
ag3
aa(lp170
g5
ag3
ag3
ag3
aa(lp171
g3
ag3
ag3
ag3
aa(lp172
g3
ag3
ag3
ag3
aa(lp173
g3
ag3
ag6
ag3
aa(lp174
g3
ag3
ag3
ag3
aa(lp175
g3
ag3
ag26
ag3
aa(lp176
g3
ag3
ag3
ag3
aaa(lp177
(lp178
g3
ag3
ag3
ag3
aa(lp179
g3
ag3
ag26
ag6
aa(lp180
g3
ag3
ag3
ag3
aa(lp181
g3
ag3
ag3
ag3
aa(lp182
g3
ag3
ag3
ag6
aa(lp183
g3
ag3
ag3
ag3
aa(lp184
g3
ag3
ag26
ag3
aa(lp185
g3
ag3
ag3
ag3
aa(lp186
g3
ag5
ag3
ag3
aa(lp187
g3
ag3
ag3
ag3
aa(lp188
g3
ag3
ag3
ag6
aa(lp189
g3
ag3
ag3
ag3
aa(lp190
g3
ag3
ag26
ag3
aa(lp191
g3
ag3
ag3
ag3
aa(lp192
g3
ag11
ag3
ag3
aa(lp193
g3
ag3
ag3
ag3
aaa(lp194
(lp195
g3
ag3
ag3
ag3
aaa(lp196
(lp197
g3
ag3
ag3
ag3
aa(lp198
g3
ag11
ag6
ag6
aa(lp199
g3
ag3
ag3
ag3
aa(lp200
g3
ag3
ag3
ag6
aa(lp201
g3
ag3
ag3
ag3
aa(lp202
g3
ag6
ag3
ag3
aa(lp203
g3
ag3
ag3
ag3
aa(lp204
g3
ag3
ag3
ag6
aa(lp205
g3
ag3
ag3
ag3
aa(lp206
g3
ag3
ag6
ag3
aa(lp207
g3
ag3
ag3
ag3
aa(lp208
g3
ag6
ag3
ag3
aa(lp209
g3
ag3
ag3
ag3
aa(lp210
g6
ag3
ag3
ag3
aa(lp211
g3
ag3
ag3
ag3
aa(lp212
g26
ag3
ag3
ag3
aa(lp213
g3
ag3
ag3
ag3
aaa(lp214
(lp215
g3
ag3
ag3
ag3
aa(lp216
g5
ag11
ag6
ag26
aa(lp217
g3
ag3
ag3
ag3
aa(lp218
g3
ag3
ag3
ag26
aa(lp219
g3
ag3
ag3
ag3
aa(lp220
g3
ag11
ag3
ag3
aa(lp221
g3
ag3
ag3
ag3
aa(lp222
g3
ag3
ag3
ag26
aa(lp223
g3
ag3
ag3
ag3
aa(lp224
g3
ag11
ag3
ag3
aa(lp225
g3
ag3
ag3
ag3
aa(lp226
g3
ag3
ag3
ag26
aa(lp227
g3
ag3
ag3
ag3
aa(lp228
g3
ag3
ag6
ag3
aa(lp229
g3
ag3
ag3
ag3
aa(lp230
g3
ag6
ag3
ag3
aa(lp231
g3
ag3
ag3
ag3
aaa(lp232
(lp233
g3
ag3
ag3
ag3
aa(lp234
g3
ag5
ag6
ag6
aa(lp235
g3
ag3
ag3
ag3
aa(lp236
g3
ag3
ag3
ag6
aa(lp237
g3
ag3
ag3
ag3
aa(lp238
g3
ag3
ag6
ag3
aa(lp239
g3
ag3
ag3
ag3
aa(lp240
g3
ag5
ag3
ag3
aa(lp241
g3
ag3
ag3
ag3
aa(lp242
g5
ag3
ag3
ag3
aa(lp243
g3
ag3
ag3
ag3
aa(lp244
g3
ag3
ag6
ag3
aa(lp245
g3
ag3
ag3
ag3
aa(lp246
g3
ag3
ag26
ag3
aa(lp247
g3
ag3
ag3
ag3
aaa(lp248
(lp249
g3
ag3
ag3
ag3
aa(lp250
g3
ag3
aS'4'
p251
ag6
aa(lp252
g3
ag3
ag3
ag3
aa(lp253
g3
ag5
ag3
ag3
aa(lp254
g3
ag3
ag3
ag3
aa(lp255
g26
ag3
ag3
ag3
aa(lp256
g3
ag3
ag3
ag3
aa(lp257
g3
ag11
ag3
ag3
aa(lp258
g3
ag3
ag3
ag3
aa(lp259
g3
ag6
ag3
ag3
aa(lp260
g3
ag3
ag3
ag6
aa(lp261
g3
ag3
ag3
ag3
aa(lp262
g26
ag3
ag3
ag3
aa(lp263
g3
ag3
ag3
ag3
aa(lp264
g3
ag3
ag3
ag6
aa(lp265
g3
ag3
ag3
ag3
aaa(lp266
(lp267
g3
ag3
ag3
ag3
aa(lp268
g5
ag6
ag6
ag26
aa(lp269
g3
ag3
ag3
ag3
aa(lp270
g3
ag3
ag3
ag26
aa(lp271
g3
ag3
ag3
ag3
aa(lp272
g3
ag3
ag6
ag3
aa(lp273
g3
ag3
ag3
ag3
aa(lp274
g3
ag6
ag3
ag3
aa(lp275
g3
ag3
ag3
ag3
aa(lp276
g5
ag3
ag3
ag3
aa(lp277
g3
ag3
ag3
ag3
aa(lp278
g3
ag3
ag3
ag26
aa(lp279
g3
ag3
ag3
ag3
aa(lp280
g6
ag3
ag3
ag3
aa(lp281
g3
ag3
ag3
ag3
aa(lp282
g26
ag3
ag3
ag3
aa(lp283
g3
ag3
ag3
ag3
aaa(lp284
(lp285
g3
ag3
ag3
ag3
aaa(lp286
(lp287
g3
ag3
ag3
ag3
aa(lp288
g5
ag11
ag6
ag26
aa(lp289
g3
ag3
ag3
ag3
aa(lp290
g3
ag3
ag3
ag26
aa(lp291
g3
ag3
ag3
ag3
aa(lp292
g3
ag11
ag3
ag3
aa(lp293
g3
ag3
ag3
ag3
aa(lp294
g3
ag3
ag3
ag26
aa(lp295
g3
ag3
ag3
ag3
aa(lp296
g3
ag11
ag3
ag3
aa(lp297
g3
ag3
ag3
ag3
aa(lp298
g3
ag3
ag3
ag26
aa(lp299
g3
ag3
ag3
ag3
aa(lp300
g3
ag3
ag6
ag3
aa(lp301
g3
ag3
ag3
ag3
aa(lp302
g3
ag6
ag3
ag3
aa(lp303
g3
ag3
ag3
ag3
aaa(lp304
(lp305
g3
ag3
ag3
ag3
aa(lp306
g3
ag5
ag6
ag6
aa(lp307
g3
ag3
ag3
ag3
aa(lp308
g3
ag3
ag3
ag6
aa(lp309
g3
ag3
ag3
ag3
aa(lp310
g3
ag3
ag6
ag3
aa(lp311
g3
ag3
ag3
ag3
aa(lp312
g3
ag5
ag3
ag3
aa(lp313
g3
ag3
ag3
ag3
aa(lp314
g5
ag3
ag3
ag3
aa(lp315
g3
ag3
ag3
ag3
aa(lp316
g3
ag3
ag3
ag3
aa(lp317
g3
ag3
ag6
ag3
aa(lp318
g3
ag3
ag3
ag3
aa(lp319
g3
ag3
ag26
ag3
aa(lp320
g3
ag3
ag3
ag3
aaa(lp321
(lp322
g3
ag3
ag3
ag3
aa(lp323
g3
ag3
ag251
ag6
aa(lp324
g3
ag3
ag3
ag3
aa(lp325
S'='
p326
ag5
ag3
ag3
aa(lp327
g3
ag3
ag3
ag3
aa(lp328
g26
ag3
ag3
ag3
aa(lp329
g3
ag3
ag3
ag3
aa(lp330
g3
ag11
ag3
ag3
aa(lp331
g3
ag3
ag3
ag3
aa(lp332
g3
ag6
ag3
ag3
aa(lp333
g3
ag3
ag3
ag3
aa(lp334
g3
ag3
ag3
ag6
aa(lp335
g3
ag3
ag3
ag3
aa(lp336
g3
ag3
ag26
ag3
aa(lp337
g3
ag3
ag3
ag3
aaa(lp338
(lp339
g3
ag3
ag3
ag3
aa(lp340
g3
ag3
ag26
ag26
aa(lp341
g3
ag3
ag3
ag3
aa(lp342
g3
ag3
ag6
ag3
aa(lp343
g3
ag3
ag3
ag3
aaa(lp344
(lp345
g3
ag3
ag3
ag3
aa(lp346
g3
ag5
ag6
ag6
aa(lp347
g3
ag3
ag3
ag3
aa(lp348
g3
ag3
ag3
ag6
aa(lp349
g3
ag3
ag3
ag3
aa(lp350
g3
ag11
ag3
ag3
aa(lp351
g3
ag3
ag3
ag3
aa(lp352
g3
ag3
ag3
ag6
aa(lp353
g3
ag3
ag3
ag3
aa(lp354
g3
ag6
ag3
ag3
aa(lp355
g3
ag3
ag3
ag3
aa(lp356
g3
ag3
ag3
ag3
aa(lp357
g3
ag3
ag3
ag3
aa(lp358
g3
ag3
ag3
ag6
aa(lp359
g3
ag3
ag3
ag3
aaa(lp360
(lp361
g3
ag3
ag3
ag3
aa(lp362
g3
ag3
ag26
ag6
aa(lp363
g3
ag3
ag3
ag3
aa(lp364
g3
ag6
ag3
ag3
aa(lp365
g3
ag3
ag3
ag3
aa(lp366
g3
ag3
ag3
ag3
aa(lp367
g3
ag3
ag3
ag3
aa(lp368
g3
ag3
ag26
ag3
aa(lp369
g3
ag3
ag3
ag3
aa(lp370
g3
ag3
ag6
ag6
aa(lp371
g3
ag3
ag3
ag3
aa(lp372
g3
ag3
ag3
ag6
aa(lp373
g3
ag3
ag3
ag3
aa(lp374
g3
ag3
ag6
ag3
aa(lp375
g3
ag3
ag3
ag3
aa(lp376
g3
ag6
ag3
ag3
aa(lp377
g3
ag3
ag3
ag3
aaa(lp378
(lp379
g3
ag3
ag3
ag3
aa(lp380
g3
ag5
ag6
ag26
aa(lp381
g3
ag3
ag3
ag3
aa(lp382
g3
ag3
ag3
ag26
aa(lp383
g3
ag3
ag3
ag3
aa(lp384
g3
ag3
ag6
ag3
aa(lp385
g3
ag3
ag3
ag3
aa(lp386
g3
ag11
ag3
ag3
aa(lp387
g3
ag3
ag3
ag3
aa(lp388
g3
ag6
ag26
ag6
aa(lp389
g3
ag3
ag3
ag3
aa(lp390
g3
ag3
ag3
ag3
aa(lp391
g3
ag3
ag3
ag3
aa(lp392
g3
ag3
ag3
ag251
aa(lp393
g3
ag3
ag3
ag3
aaa(lp394
(lp395
g3
ag3
ag3
ag3
aa(lp396
g3
ag3
ag6
ag6
aa(lp397
g3
ag3
ag3
ag3
aaa.