(lp0
(lp1
(lp2
S'-'
p3
ag3
ag3
ag3
aa(lp4
g3
ag3
ag3
ag3
aa(lp5
g3
ag3
ag3
ag3
aa(lp6
g3
ag3
ag3
ag3
aa(lp7
S'-'
p8
ag8
ag8
ag8
aa(lp9
S'0'
p10
ag3
ag3
ag3
aa(lp11
g3
ag3
ag3
ag3
aa(lp12
S'1'
p13
ag3
ag3
ag3
aa(lp14
g3
ag3
ag3
ag3
aaa(lp15
(lp16
g3
ag3
ag3
ag3
aa(lp17
S'3'
p18
ag13
ag10
aS'2'
p19
aa(lp20
g3
ag3
ag3
ag3
aa(lp21
g3
ag3
ag3
ag19
aa(lp22
g3
ag3
ag3
ag3
aa(lp23
g3
ag3
ag10
ag3
aa(lp24
g3
ag3
ag3
ag3
aa(lp25
g18
ag3
ag3
ag19
aa(lp26
g3
ag3
ag3
ag3
aaa(lp27
(lp28
g3
ag3
ag3
ag3
aa(lp29
g18
ag3
ag3
ag19
aa(lp30
g3
ag3
ag3
ag3
aa(lp31
g3
ag3
ag3
ag19
aa(lp32
g3
ag3
ag3
ag3
aa(lp33
g3
ag3
ag10
ag3
aa(lp34
g3
ag3
ag3
ag3
aa(lp35
g18
ag3
ag3
ag3
aa(lp36
g3
ag3
ag3
ag3
aaa(lp37
(lp38
g3
ag3
ag3
ag3
aa(lp39
g18
ag10
ag10
ag19
aa(lp40
g3
ag3
ag3
ag3
aa(lp41
g3
ag3
ag3
ag19
aa(lp42
g3
ag3
ag3
ag3
aa(lp43
g3
ag3
ag10
ag3
aa(lp44
g3
ag3
ag3
ag3
aa(lp45
g13
ag3
ag3
ag3
aa(lp46
g3
ag3
ag3
ag3
aaa(lp47
(lp48
g3
ag3
ag3
ag3
aa(lp49
g10
ag3
ag3
ag3
aa(lp50
g3
ag3
ag3
ag3
aa(lp51
g3
ag10
ag3
ag3
aa(lp52
g3
ag3
ag3
ag3
aa(lp53
g13
ag3
ag3
ag3
aa(lp54
g3
ag3
ag3
ag3
aa(lp55
g3
ag10
ag3
ag3
aa(lp56
g3
ag3
ag3
ag3
aaa(lp57
(lp58
g3
ag3
ag3
ag3
aa(lp59
g18
ag18
ag18
ag18
aa(lp60
g3
ag3
ag3
ag3
aa(lp61
g3
ag3
ag3
ag18
aa(lp62
g3
ag3
ag3
ag3
aa(lp63
g3
ag3
ag18
ag3
aa(lp64
g3
ag3
ag3
ag3
aa(lp65
g18
ag3
ag3
ag3
aa(lp66
g3
ag3
ag3
ag3
aaa(lp67
(lp68
g3
ag3
ag3
ag3
aa(lp69
g3
aS'6'
p70
ag3
ag3
aa(lp71
g3
ag3
ag3
ag3
aa(lp72
g3
ag3
ag18
ag3
aa(lp73
g3
ag3
ag3
ag3
aa(lp74
g3
aS'5'
p75
ag3
ag3
aa(lp76
g3
ag3
ag3
ag3
aa(lp77
g3
ag3
ag18
ag3
aa(lp78
g3
ag3
ag3
ag3
aaa(lp79
(lp80
g3
ag3
ag3
ag3
aa(lp81
g13
ag13
ag19
ag10
aa(lp82
g3
ag3
ag3
ag3
aa(lp83
g3
ag3
ag3
ag10
aa(lp84
g3
ag3
ag3
ag3
aa(lp85
g3
ag3
ag19
ag3
aa(lp86
g3
ag3
ag3
ag3
aa(lp87
g3
ag13
ag3
ag3
aa(lp88
g3
ag3
ag3
ag3
aaa(lp89
(lp90
g3
ag3
ag3
ag3
aa(lp91
g13
ag3
ag3
ag3
aa(lp92
g3
ag3
ag3
ag3
aa(lp93
g3
ag13
ag3
ag3
aa(lp94
g3
ag3
ag3
ag3
aa(lp95
g3
ag3
ag19
ag3
aa(lp96
g3
ag3
ag3
ag3
aa(lp97
g13
ag3
ag3
ag3
aa(lp98
g3
ag3
ag3
ag3
aaa(lp99
(lp100
g3
ag3
ag3
ag3
aa(lp101
g13
ag13
ag13
ag10
aa(lp102
g3
ag3
ag3
ag3
aa(lp103
g3
ag3
ag13
ag3
aa(lp104
g3
ag3
ag3
ag3
aa(lp105
g3
ag13
ag3
ag3
aa(lp106
g3
ag3
ag3
ag3
aa(lp107
g13
ag3
ag3
ag3
aa(lp108
g3
ag3
ag3
ag3
aaa(lp109
(lp110
g3
ag3
ag3
ag3
aa(lp111
g10
ag3
ag3
ag3
aa(lp112
g3
ag3
ag3
ag3
aa(lp113
g3
ag3
ag13
ag3
aa(lp114
g3
ag3
ag3
ag3
aa(lp115
g3
ag13
ag3
ag3
aa(lp116
g3
ag3
ag3
ag3
aa(lp117
g3
ag3
ag13
ag3
aa(lp118
g3
ag3
ag3
ag3
aaa(lp119
(lp120
g3
ag3
ag3
ag3
aa(lp121
g3
ag13
ag10
ag19
aa(lp122
g3
ag3
ag3
ag3
aa(lp123
g3
ag3
ag10
ag3
aa(lp124
g3
ag3
ag3
ag3
aa(lp125
g3
ag13
ag3
ag3
aa(lp126
g3
ag3
ag3
ag3
aa(lp127
g3
ag3
ag10
ag3
aa(lp128
g3
ag3
ag3
ag3
aaa(lp129
(lp130
g3
ag3
ag3
ag3
aa(lp131
g10
ag3
ag3
ag3
aa(lp132
g3
ag3
ag3
ag3
aa(lp133
g3
ag3
ag10
ag3
aa(lp134
g3
ag3
ag3
ag3
aa(lp135
g3
ag13
ag3
ag3
aa(lp136
g3
ag3
ag3
ag3
aa(lp137
g3
ag3
ag10
ag3
aa(lp138
g3
ag3
ag3
ag3
aaa(lp139
(lp140
g3
ag3
ag3
ag3
aa(lp141
g3
ag13
ag13
ag10
aa(lp142
g3
ag3
ag3
ag3
aa(lp143
g3
ag3
ag3
ag10
aa(lp144
g3
ag3
ag3
ag3
aa(lp145
g3
ag3
ag13
ag3
aa(lp146
g3
ag3
ag3
ag3
aa(lp147
g3
ag13
ag3
ag3
aa(lp148
g3
ag3
ag3
ag3
aaa(lp149
(lp150
g3
ag3
ag3
ag3
aa(lp151
g3
ag13
ag3
ag3
aa(lp152
g3
ag3
ag3
ag3
aa(lp153
g3
ag3
ag3
ag10
aa(lp154
g3
ag3
ag3
ag3
aa(lp155
g3
ag3
ag13
ag3
aa(lp156
g3
ag3
ag3
ag3
aa(lp157
g18
ag3
ag3
ag3
aa(lp158
g3
ag3
ag3
ag3
aaa(lp159
(lp160
g3
ag3
ag3
ag3
aa(lp161
g3
ag18
ag10
ag10
aa(lp162
g3
ag3
ag3
ag3
aa(lp163
g3
ag3
ag10
ag3
aa(lp164
g3
ag3
ag3
ag3
aa(lp165
g3
ag10
ag3
ag3
aa(lp166
g3
ag3
ag3
ag3
aa(lp167
g3
ag18
ag3
ag3
aa(lp168
g3
ag3
ag3
ag3
aaa(lp169
(lp170
g3
ag3
ag3
ag3
aa(lp171
g18
ag3
ag3
ag3
aa(lp172
g3
ag3
ag3
ag3
aa(lp173
g13
ag3
ag3
ag3
aa(lp174
g3
ag3
ag3
ag3
aa(lp175
g10
ag3
ag3
ag3
aa(lp176
g3
ag3
ag3
ag3
aa(lp177
g13
ag3
ag3
ag3
aa(lp178
g3
ag3
ag3
ag3
aaa(lp179
(lp180
g3
ag3
ag3
ag3
aa(lp181
g18
ag13
ag10
ag19
aa(lp182
g3
ag3
ag3
ag3
aa(lp183
g3
ag3
ag3
ag19
aa(lp184
g3
ag3
ag3
ag3
aa(lp185
g3
ag3
ag10
ag3
aa(lp186
g3
ag3
ag3
ag3
aa(lp187
g18
ag3
ag3
ag19
aa(lp188
g3
ag3
ag3
ag3
aaa(lp189
(lp190
g3
ag3
ag3
ag3
aa(lp191
g18
ag3
ag3
ag19
aa(lp192
g3
ag3
ag3
ag3
aa(lp193
g3
ag3
ag3
ag19
aa(lp194
g3
ag3
ag3
ag3
aa(lp195
g3
ag3
ag10
ag3
aa(lp196
g3
ag3
ag3
ag3
aa(lp197
g18
ag3
ag3
ag3
aa(lp198
g3
ag3
ag3
ag3
aaa(lp199
(lp200
g3
ag3
ag3
ag3
aa(lp201
g18
ag10
ag10
ag19
aa(lp202
g3
ag3
ag3
ag3
aa(lp203
g3
ag3
ag3
ag19
aa(lp204
g3
ag3
ag3
ag3
aa(lp205
g3
ag3
ag10
ag3
aa(lp206
g3
ag3
ag3
ag3
aa(lp207
g13
ag3
ag3
ag3
aa(lp208
g3
ag3
ag3
ag3
aaa(lp209
(lp210
g3
ag3
ag3
ag3
aa(lp211
g10
ag3
ag3
ag3
aa(lp212
g3
ag3
ag3
ag3
aa(lp213
g3
ag10
ag3
ag3
aa(lp214
g3
ag3
ag3
ag3
aa(lp215
g13
ag3
ag3
ag3
aa(lp216
g3
ag3
ag3
ag3
aa(lp217
g3
ag10
ag3
ag3
aa(lp218
g3
ag3
ag3
ag3
aaa(lp219
(lp220
g3
ag3
ag3
ag3
aa(lp221
g18
ag18
ag18
ag18
aa(lp222
g3
ag3
ag3
ag3
aa(lp223
g3
ag3
ag3
ag18
aa(lp224
g3
ag3
ag3
ag3
aa(lp225
g3
ag3
ag18
ag3
aa(lp226
g3
ag3
ag3
ag3
aa(lp227
g18
ag3
ag3
ag3
aa(lp228
g3
ag3
ag3
ag3
aaa(lp229
(lp230
g3
ag3
ag3
ag3
aa(lp231
g3
ag70
ag3
ag3
aa(lp232
g3
ag3
ag3
ag3
aa(lp233
g3
ag3
ag18
ag3
aa(lp234
g3
ag3
ag3
ag3
aa(lp235
g3
ag75
ag3
ag3
aa(lp236
g3
ag3
ag3
ag3
aa(lp237
g3
ag3
ag18
ag3
aa(lp238
g3
ag3
ag3
ag3
aaa(lp239
(lp240
g3
ag3
ag3
ag3
aa(lp241
g13
ag13
ag19
ag10
aa(lp242
g3
ag3
ag3
ag3
aa(lp243
g3
ag3
ag3
ag10
aa(lp244
g3
ag3
ag3
ag3
aa(lp245
g3
ag3
ag19
ag3
aa(lp246
g3
ag3
ag3
ag3
aa(lp247
g3
ag13
ag3
ag3
aa(lp248
g3
ag3
ag3
ag3
aaa(lp249
(lp250
g3
ag3
ag3
ag3
aa(lp251
g13
ag3
ag3
ag3
aa(lp252
g3
ag3
ag3
ag3
aa(lp253
g3
ag13
ag3
ag3
aa(lp254
g3
ag3
ag3
ag3
aa(lp255
g3
ag3
ag19
ag3
aa(lp256
g3
ag3
ag3
ag3
aa(lp257
g13
ag3
ag3
ag3
aa(lp258
g3
ag3
ag3
ag3
aaa(lp259
(lp260
g3
ag3
ag3
ag3
aa(lp261
g13
ag13
ag13
ag10
aa(lp262
g3
ag3
ag3
ag3
aa(lp263
g3
ag3
ag13
ag3
aa(lp264
g3
ag3
ag3
ag3
aa(lp265
g3
ag13
ag3
ag3
aa(lp266
g3
ag3
ag3
ag3
aa(lp267
g13
ag3
ag3
ag3
aa(lp268
g3
ag3
ag3
ag3
aaa(lp269
(lp270
g3
ag3
ag3
ag3
aa(lp271
g10
ag3
ag3
ag3
aa(lp272
g3
ag3
ag3
ag3
aa(lp273
g3
ag3
ag13
ag3
aa(lp274
g3
ag3
ag3
ag3
aa(lp275
g3
ag13
ag3
ag3
aa(lp276
g3
ag3
ag3
ag3
aa(lp277
g3
ag3
ag13
ag3
aa(lp278
g3
ag3
ag3
ag3
aaa(lp279
(lp280
g3
ag3
ag3
ag3
aa(lp281
g3
ag13
ag10
ag19
aa(lp282
g3
ag3
ag3
ag3
aa(lp283
g3
ag3
ag10
ag3
aa(lp284
g3
ag3
ag3
ag3
aa(lp285
g3
ag13
ag3
ag3
aa(lp286
g3
ag3
ag3
ag3
aa(lp287
g3
ag3
ag10
ag3
aa(lp288
g3
ag3
ag3
ag3
aaa(lp289
(lp290
g3
ag3
ag3
ag3
aa(lp291
g10
ag3
ag3
ag3
aa(lp292
g3
ag3
ag3
ag3
aa(lp293
g3
ag3
ag10
ag3
aa(lp294
g3
ag3
ag3
ag3
aa(lp295
g3
ag13
ag3
ag3
aa(lp296
g3
ag3
ag3
ag3
aa(lp297
g3
ag3
ag10
ag3
aa(lp298
g3
ag3
ag3
ag3
aaa(lp299
(lp300
g3
ag3
ag3
ag3
aa(lp301
g3
ag13
ag13
ag10
aa(lp302
g3
ag3
ag3
ag3
aa(lp303
g3
ag3
ag3
ag10
aa(lp304
g3
ag3
ag3
ag3
aa(lp305
g3
ag3
ag13
ag3
aa(lp306
g3
ag3
ag3
ag3
aa(lp307
g3
ag13
ag3
ag3
aa(lp308
g3
ag3
ag3
ag3
aaa(lp309
(lp310
g3
ag3
ag3
ag3
aa(lp311
g3
ag13
ag3
ag3
aa(lp312
g3
ag3
ag3
ag3
aa(lp313
g3
ag3
ag3
ag10
aa(lp314
g3
ag3
ag3
ag3
aa(lp315
g3
ag3
ag13
ag3
aa(lp316
g3
ag3
ag3
ag3
aa(lp317
g18
ag3
ag3
ag3
aa(lp318
g3
ag3
ag3
ag3
aaa(lp319
(lp320
g3
ag3
ag3
ag3
aa(lp321
g3
ag18
ag10
ag10
aa(lp322
g3
ag3
ag3
ag3
aa(lp323
g3
ag3
ag10
ag3
aa(lp324
g3
ag3
ag3
ag3
aa(lp325
g3
ag10
ag3
ag3
aa(lp326
g3
ag3
ag3
ag3
aa(lp327
g3
ag18
ag3
ag3
aa(lp328
g3
ag3
ag3
ag3
aaa(lp329
(lp330
g3
ag3
ag3
ag3
aa(lp331
g18
ag3
ag3
ag3
aa(lp332
g3
ag3
ag3
ag3
aa(lp333
g3
ag3
ag3
ag3
aa(lp334
g3
ag3
ag3
ag3
aa(lp335
g3
ag13
ag3
ag3
aa(lp336
g3
ag3
ag3
ag3
aa(lp337
g3
ag3
ag3
ag3
aa(lp338
g3
ag3
ag3
ag3
aaa(lp339
(lp340
g3
ag3
ag3
ag3
aa(lp341
g10
ag13
ag19
ag18
aa(lp342
g3
ag3
ag3
ag3
aa(lp343
g3
ag3
ag3
ag18
aa(lp344
g3
ag3
ag3
ag3
aa(lp345
g3
ag3
ag19
ag3
aa(lp346
g3
ag3
ag3
ag3
aa(lp347
g3
ag13
ag3
ag3
aa(lp348
g3
ag3
ag3
ag3
aaa(lp349
(lp350
g3
ag3
ag3
ag3
aa(lp351
g10
ag3
ag3
ag3
aa(lp352
g3
ag3
ag3
ag3
aa(lp353
g3
ag13
ag3
ag3
aa(lp354
g3
ag3
ag3
ag3
aa(lp355
g75
ag70
ag75
ag10
aa(lp356
g3
ag3
ag3
ag3
aa(lp357
g3
ag3
ag3
ag3
aa(lp358
g3
ag3
ag3
ag3
aaa(lp359
(lp360
g3
ag3
ag3
ag3
aa(lp361
S'7'
p362
ag75
ag362
ag70
aa(lp363
g3
ag3
ag3
ag3
aa(lp364
g3
ag3
ag3
ag70
aa(lp365
g3
ag3
ag3
ag3
aa(lp366
g3
ag3
ag362
ag3
aa(lp367
g3
ag3
ag3
ag3
aa(lp368
g3
ag75
ag3
ag3
aa(lp369
g3
ag3
ag3
ag3
aaa(lp370
(lp371
g3
ag3
ag3
ag3
aa(lp372
g362
ag3
ag3
ag3
aa(lp373
g3
ag3
ag3
ag3
aa(lp374
g3
ag75
ag3
ag3
aa(lp375
g3
ag3
ag3
ag3
aa(lp376
g3
ag3
ag362
ag3
aa(lp377
g3
ag3
ag3
ag3
aa(lp378
S'8'
p379
ag3
ag3
ag3
aa(lp380
g3
ag3
ag3
ag3
aaa(lp381
(lp382
g3
ag3
ag3
ag3
aa(lp383
g10
ag13
ag19
ag18
aa(lp384
g3
ag3
ag3
ag3
aa(lp385
g3
ag3
ag3
ag3
aa(lp386
g10
ag3
ag3
ag18
aa(lp387
g3
ag3
ag3
ag3
aa(lp388
g3
ag3
ag3
ag3
aa(lp389
g10
ag3
ag3
ag18
aa(lp390
g3
ag3
ag3
ag3
aaa(lp391
(lp392
g3
ag3
ag3
ag3
aa(lp393
g10
ag13
ag19
ag18
aa(lp394
g3
ag3
ag3
ag3
aa(lp395
g3
ag3
ag3
ag3
aa(lp396
g3
ag18
ag3
ag3
aa(lp397
g3
ag3
ag3
ag3
aa(lp398
g3
ag3
ag3
ag3
aa(lp399
g3
ag13
ag3
ag3
aa(lp400
g3
ag3
ag3
ag3
aaa(lp401
(lp402
g3
ag3
ag3
ag3
aa(lp403
g3
ag18
ag19
ag10
aa(lp404
g3
ag3
ag3
ag3
aa(lp405
g3
ag3
ag3
ag10
aa(lp406
g3
ag3
ag3
ag3
aa(lp407
g3
ag3
ag19
ag3
aa(lp408
g3
ag3
ag3
ag3
aa(lp409
g3
ag18
ag3
ag3
aa(lp410
g3
ag3
ag3
ag3
aaa(lp411
(lp412
g3
ag3
ag3
ag3
aa(lp413
g10
ag3
ag3
ag3
aa(lp414
g3
ag3
ag3
ag3
aa(lp415
g3
ag18
ag3
ag3
aa(lp416
g3
ag3
ag3
ag3
aa(lp417
g3
ag3
ag19
ag3
aa(lp418
g3
ag3
ag3
ag3
aa(lp419
g75
ag3
ag3
ag3
aa(lp420
g3
ag3
ag3
ag3
aaa(lp421
(lp422
g3
ag3
ag3
ag3
aa(lp423
g18
ag18
ag18
ag18
aa(lp424
g3
ag3
ag3
ag3
aa(lp425
g3
ag3
ag3
ag18
aa(lp426
g3
ag3
ag3
ag3
aa(lp427
g3
ag3
ag18
ag3
aa(lp428
g3
ag3
ag3
ag3
aa(lp429
g3
ag18
ag3
ag3
aa(lp430
g3
ag3
ag3
ag3
aaa(lp431
(lp432
g3
ag3
ag3
ag3
aa(lp433
g18
ag3
ag3
ag3
aa(lp434
g3
ag3
ag3
ag3
aa(lp435
g3
ag18
ag3
ag3
aa(lp436
g3
ag3
ag3
ag3
aa(lp437
g3
ag3
ag18
ag3
aa(lp438
g3
ag3
ag3
ag3
aa(lp439
g3
ag18
ag3
ag3
aa(lp440
g3
ag3
ag3
ag3
aaa(lp441
(lp442
g3
ag3
ag3
ag3
aa(lp443
g3
ag19
ag18
ag19
aa(lp444
g3
ag3
ag3
ag3
aa(lp445
g3
ag3
ag3
ag19
aa(lp446
g3
ag3
ag3
ag3
aa(lp447
g3
ag3
ag18
ag3
aa(lp448
g3
ag3
ag3
ag3
aa(lp449
g3
ag19
ag3
ag3
aa(lp450
g3
ag3
ag3
ag3
aaa(lp451
(lp452
g3
ag3
ag3
ag3
aa(lp453
g10
ag3
ag3
ag3
aa(lp454
g3
ag3
ag3
ag3
aa(lp455
g3
ag19
ag3
ag3
aa(lp456
g3
ag3
ag3
ag3
aa(lp457
g3
ag3
ag18
ag3
aa(lp458
g3
ag3
ag3
ag3
aa(lp459
g18
ag3
ag3
ag3
aa(lp460
g3
ag3
ag3
ag3
aaa(lp461
(lp462
g3
ag3
ag3
ag3
aa(lp463
g13
ag13
ag19
ag10
aa(lp464
g3
ag3
ag3
ag3
aa(lp465
g3
ag3
ag3
ag10
aa(lp466
g3
ag3
ag3
ag3
aa(lp467
g3
ag3
ag19
ag3
aa(lp468
g3
ag3
ag3
ag3
aa(lp469
g3
ag13
ag3
ag3
aa(lp470
g3
ag3
ag3
ag3
aaa(lp471
(lp472
g3
ag3
ag3
ag3
aa(lp473
g13
ag3
ag3
ag3
aa(lp474
g3
ag3
ag3
ag3
aa(lp475
g3
ag13
ag3
ag3
aa(lp476
g3
ag3
ag3
ag3
aa(lp477
g3
ag3
ag19
ag3
aa(lp478
g3
ag3
ag3
ag3
aa(lp479
g3
ag13
ag3
ag3
aa(lp480
g3
ag3
ag3
ag3
aaa(lp481
(lp482
g3
ag3
ag3
ag3
aa(lp483
g3
ag10
ag10
ag10
aa(lp484
g3
ag3
ag3
ag3
aa(lp485
g3
ag3
ag10
ag3
aa(lp486
g3
ag3
ag3
ag3
aa(lp487
g3
ag10
ag3
ag3
aa(lp488
g3
ag3
ag3
ag3
aa(lp489
g3
ag18
ag3
ag3
aa(lp490
g3
ag3
ag3
ag3
aaa(lp491
(lp492
g3
ag3
ag3
ag3
aa(lp493
g18
ag3
ag3
ag3
aa(lp494
g3
ag3
ag3
ag3
aa(lp495
g13
ag3
ag3
ag3
aa(lp496
g3
ag3
ag3
ag3
aa(lp497
g10
ag3
ag3
ag3
aa(lp498
g3
ag3
ag3
ag3
aa(lp499
g13
ag3
ag3
ag3
aa(lp500
g3
ag3
ag3
ag3
aaa(lp501
(lp502
g3
ag3
ag3
ag3
aa(lp503
g18
ag13
ag10
ag19
aa(lp504
g3
ag3
ag3
ag3
aa(lp505
g3
ag3
ag3
ag19
aa(lp506
g3
ag3
ag3
ag3
aa(lp507
g3
ag3
ag10
ag3
aa(lp508
g3
ag3
ag3
ag3
aa(lp509
g18
ag3
ag3
ag19
aa(lp510
g3
ag3
ag3
ag3
aaa(lp511
(lp512
g3
ag3
ag3
ag3
aa(lp513
g18
ag3
ag3
ag19
aa(lp514
g3
ag3
ag3
ag3
aa(lp515
g3
ag3
ag3
ag19
aa(lp516
g3
ag3
ag3
ag3
aa(lp517
g3
ag3
ag10
ag3
aa(lp518
g3
ag3
ag3
ag3
aa(lp519
g18
ag3
ag3
ag3
aa(lp520
g3
ag3
ag3
ag3
aaa(lp521
(lp522
g3
ag3
ag3
ag3
aa(lp523
g18
ag10
ag10
ag19
aa(lp524
g3
ag3
ag3
ag3
aa(lp525
g3
ag3
ag3
ag19
aa(lp526
g3
ag3
ag3
ag3
aa(lp527
g3
ag3
ag10
ag3
aa(lp528
g3
ag3
ag3
ag3
aa(lp529
g13
ag3
ag3
ag3
aa(lp530
g3
ag3
ag3
ag3
aaa(lp531
(lp532
g3
ag3
ag3
ag3
aa(lp533
g10
ag3
ag3
ag3
aa(lp534
g3
ag3
ag3
ag3
aa(lp535
g3
ag10
ag3
ag3
aa(lp536
g3
ag3
ag3
ag3
aa(lp537
g13
ag3
ag3
ag3
aa(lp538
g3
ag3
ag3
ag3
aa(lp539
g3
ag10
ag3
ag3
aa(lp540
g3
ag3
ag3
ag3
aaa(lp541
(lp542
g3
ag3
ag3
ag3
aa(lp543
g18
ag18
ag18
ag18
aa(lp544
g3
ag3
ag3
ag3
aa(lp545
g3
ag3
ag3
ag3
aa(lp546
g75
ag3
ag3
ag3
aa(lp547
g3
ag3
ag3
ag3
aa(lp548
g3
ag3
ag3
ag3
aa(lp549
g18
ag3
ag3
ag3
aa(lp550
g3
ag3
ag3
ag3
aaa(lp551
(lp552
g3
ag3
ag3
ag3
aa(lp553
g3
ag70
ag3
ag3
aa(lp554
g3
ag3
ag3
ag3
aa(lp555
g3
ag3
ag18
ag3
aa(lp556
g3
ag3
ag3
ag3
aa(lp557
g3
ag75
ag3
ag3
aa(lp558
g3
ag3
ag3
ag3
aa(lp559
g3
ag3
ag18
ag3
aa(lp560
g3
ag3
ag3
ag3
aaa(lp561
(lp562
g3
ag3
ag3
ag3
aa(lp563
g13
ag13
ag19
ag10
aa(lp564
g3
ag3
ag3
ag3
aa(lp565
g3
ag3
ag19
ag3
aa(lp566
g3
ag3
ag3
ag3
aa(lp567
g3
ag13
ag3
ag3
aa(lp568
g3
ag3
ag3
ag3
aa(lp569
g13
ag3
ag3
ag3
aa(lp570
g3
ag3
ag3
ag3
aaa(lp571
(lp572
g3
ag3
ag3
ag3
aa(lp573
g18
ag3
ag3
ag3
aa(lp574
g3
ag3
ag3
ag3
aa(lp575
g13
ag3
ag3
ag3
aa(lp576
g3
ag3
ag3
ag3
aa(lp577
g3
ag13
ag3
ag3
aa(lp578
g3
ag3
ag3
ag3
aa(lp579
g13
ag3
ag3
ag3
aa(lp580
g3
ag3
ag3
ag3
aaa(lp581
(lp582
g3
ag3
ag3
ag3
aa(lp583
g13
ag13
ag13
ag10
aa(lp584
g3
ag3
ag3
ag3
aa(lp585
g3
ag3
ag3
ag10
aa(lp586
g3
ag3
ag3
ag3
aa(lp587
g3
ag3
ag13
ag3
aa(lp588
g3
ag3
ag3
ag3
aa(lp589
g13
ag3
ag3
ag3
aa(lp590
g3
ag3
ag3
ag3
aaa(lp591
(lp592
g3
ag3
ag3
ag3
aa(lp593
g10
ag3
ag3
ag3
aa(lp594
g3
ag3
ag3
ag3
aa(lp595
g3
ag13
ag3
ag3
aa(lp596
g3
ag3
ag3
ag3
aa(lp597
g3
ag3
ag13
ag3
aa(lp598
g3
ag3
ag3
ag3
aa(lp599
g3
ag13
ag3
ag3
aa(lp600
g3
ag3
ag3
ag3
aaa(lp601
(lp602
g3
ag3
ag3
ag3
aa(lp603
g10
ag13
ag10
ag19
aa(lp604
g3
ag3
ag3
ag3
aa(lp605
g3
ag3
ag10
ag3
aa(lp606
g3
ag3
ag3
ag3
aa(lp607
g3
ag13
ag3
ag3
aa(lp608
g3
ag3
ag3
ag3
aa(lp609
g3
ag3
ag10
ag3
aa(lp610
g3
ag3
ag3
ag3
aaa(lp611
(lp612
g3
ag3
ag3
ag3
aa(lp613
g10
ag3
ag3
ag3
aa(lp614
g3
ag3
ag3
ag3
aa(lp615
g3
ag3
ag10
ag3
aa(lp616
g3
ag3
ag3
ag3
aa(lp617
g3
ag13
ag3
ag3
aa(lp618
g3
ag3
ag3
ag3
aa(lp619
g3
ag3
ag10
ag3
aa(lp620
g3
ag3
ag3
ag3
aaa(lp621
(lp622
g3
ag3
ag3
ag3
aa(lp623
g3
ag13
ag13
ag10
aa(lp624
g3
ag3
ag3
ag3
aa(lp625
g3
ag3
ag3
ag10
aa(lp626
g3
ag3
ag3
ag3
aa(lp627
g3
ag3
ag13
ag3
aa(lp628
g3
ag3
ag3
ag3
aa(lp629
g3
ag13
ag3
ag3
aa(lp630
g3
ag3
ag3
ag3
aaa(lp631
(lp632
g3
ag3
ag3
ag3
aa(lp633
g3
ag13
ag3
ag3
aa(lp634
g3
ag3
ag3
ag3
aa(lp635
g3
ag3
ag3
ag10
aa(lp636
g3
ag3
ag3
ag3
aa(lp637
g3
ag3
ag13
ag3
aa(lp638
g3
ag3
ag3
ag3
aa(lp639
g18
ag3
ag3
ag3
aa(lp640
g3
ag3
ag3
ag3
aaa(lp641
(lp642
g3
ag3
ag3
ag3
aa(lp643
g3
ag18
ag10
ag10
aa(lp644
g3
ag3
ag3
ag3
aa(lp645
g3
ag3
ag10
ag3
aa(lp646
g3
ag3
ag3
ag3
aa(lp647
g3
ag10
ag3
ag3
aa(lp648
g3
ag3
ag3
ag3
aa(lp649
g3
ag18
ag3
ag3
aa(lp650
g3
ag3
ag3
ag3
aaa(lp651
(lp652
g3
ag3
ag3
ag3
aa(lp653
g18
ag3
ag3
ag3
aa(lp654
g3
ag3
ag3
ag3
aa(lp655
g3
ag3
ag3
ag3
aa(lp656
g3
ag3
ag3
ag3
aa(lp657
g3
ag13
ag3
ag3
aa(lp658
g3
ag3
ag3
ag3
aa(lp659
g3
ag3
ag3
ag3
aa(lp660
g3
ag3
ag3
ag3
aaa(lp661
(lp662
g3
ag3
ag3
ag3
aa(lp663
g10
ag13
ag19
ag18
aa(lp664
g3
ag3
ag3
ag3
aa(lp665
g3
ag3
ag3
ag18
aa(lp666
g3
ag3
ag3
ag3
aa(lp667
g3
ag3
ag19
ag3
aa(lp668
g3
ag3
ag3
ag3
aa(lp669
g3
ag13
ag3
ag3
aa(lp670
g3
ag3
ag3
ag3
aaa(lp671
(lp672
g3
ag3
ag3
ag3
aa(lp673
g10
ag3
ag3
ag3
aa(lp674
g3
ag3
ag3
ag3
aa(lp675
g3
ag13
ag3
ag3
aa(lp676
g3
ag3
ag3
ag3
aa(lp677
g75
ag70
ag75
ag10
aa(lp678
g3
ag3
ag3
ag3
aa(lp679
g3
ag3
ag3
ag3
aa(lp680
g3
ag3
ag3
ag3
aaa(lp681
(lp682
g3
ag3
ag3
ag3
aa(lp683
g362
ag75
ag362
ag70
aa(lp684
g3
ag3
ag3
ag3
aa(lp685
g3
ag3
ag3
ag70
aa(lp686
g3
ag3
ag3
ag3
aa(lp687
g3
ag3
ag362
ag3
aa(lp688
g3
ag3
ag3
ag3
aa(lp689
g3
ag75
ag3
ag3
aa(lp690
g3
ag3
ag3
ag3
aaa(lp691
(lp692
g3
ag3
ag3
ag3
aa(lp693
g362
ag3
ag3
ag3
aa(lp694
g3
ag3
ag3
ag3
aa(lp695
g3
ag75
ag3
ag3
aa(lp696
g3
ag3
ag3
ag3
aa(lp697
g3
ag3
ag362
ag3
aa(lp698
g3
ag3
ag3
ag3
aa(lp699
g379
ag3
ag3
ag3
aa(lp700
g3
ag3
ag3
ag3
aaa(lp701
(lp702
g3
ag3
ag3
ag3
aa(lp703
g10
ag13
ag19
ag18
aa(lp704
g3
ag3
ag3
ag3
aa(lp705
g3
ag3
ag3
ag3
aa(lp706
g10
ag3
ag3
ag18
aa(lp707
g3
ag3
ag3
ag3
aa(lp708
g3
ag3
ag3
ag3
aa(lp709
g10
ag3
ag3
ag18
aa(lp710
g3
ag3
ag3
ag3
aaa(lp711
(lp712
g3
ag3
ag3
ag3
aa(lp713
g10
ag13
ag19
ag18
aa(lp714
g3
ag3
ag3
ag3
aa(lp715
g3
ag3
ag3
ag3
aa(lp716
g3
ag18
ag3
ag3
aa(lp717
g3
ag3
ag3
ag3
aa(lp718
g3
ag3
ag3
ag3
aa(lp719
g3
ag13
ag3
ag3
aa(lp720
g3
ag3
ag3
ag3
aaa(lp721
(lp722
g3
ag3
ag3
ag3
aa(lp723
g3
ag18
ag19
ag10
aa(lp724
g3
ag3
ag3
ag3
aa(lp725
g3
ag3
ag3
ag10
aa(lp726
g3
ag3
ag3
ag3
aa(lp727
g3
ag3
ag19
ag3
aa(lp728
g3
ag3
ag3
ag3
aa(lp729
g3
ag18
ag3
ag3
aa(lp730
g3
ag3
ag3
ag3
aaa(lp731
(lp732
g3
ag3
ag3
ag3
aa(lp733
g10
ag3
ag3
ag3
aa(lp734
g3
ag3
ag3
ag3
aa(lp735
g3
ag18
ag3
ag3
aa(lp736
g3
ag3
ag3
ag3
aa(lp737
g3
ag3
ag19
ag3
aa(lp738
g3
ag3
ag3
ag3
aa(lp739
g75
ag3
ag3
ag3
aa(lp740
g3
ag3
ag3
ag3
aaa(lp741
(lp742
g3
ag3
ag3
ag3
aa(lp743
g18
ag18
ag18
ag18
aa(lp744
g3
ag3
ag3
ag3
aa(lp745
g3
ag3
ag3
ag18
aa(lp746
g3
ag3
ag3
ag3
aa(lp747
g3
ag3
ag18
ag3
aa(lp748
g3
ag3
ag3
ag3
aa(lp749
g3
ag18
ag3
ag3
aa(lp750
g3
ag3
ag3
ag3
aaa(lp751
(lp752
g3
ag3
ag3
ag3
aa(lp753
g18
ag3
ag3
ag3
aa(lp754
g3
ag3
ag3
ag3
aa(lp755
g3
ag18
ag3
ag3
aa(lp756
g3
ag3
ag3
ag3
aa(lp757
g3
ag3
ag18
ag3
aa(lp758
g3
ag3
ag3
ag3
aa(lp759
g3
ag18
ag3
ag3
aa(lp760
g3
ag3
ag3
ag3
aaa(lp761
(lp762
g3
ag3
ag3
ag3
aa(lp763
g3
ag19
ag18
ag19
aa(lp764
g3
ag3
ag3
ag3
aa(lp765
g3
ag3
ag3
ag19
aa(lp766
g3
ag3
ag3
ag3
aa(lp767
g3
ag3
ag18
ag3
aa(lp768
g3
ag3
ag3
ag3
aa(lp769
g3
ag19
ag3
ag3
aa(lp770
g3
ag3
ag3
ag3
aaa(lp771
(lp772
g3
ag3
ag3
ag3
aa(lp773
g10
ag3
ag3
ag3
aa(lp774
g3
ag3
ag3
ag3
aa(lp775
g3
ag19
ag3
ag3
aa(lp776
g3
ag3
ag3
ag3
aa(lp777
g3
ag3
ag18
ag3
aa(lp778
g3
ag3
ag3
ag3
aa(lp779
g18
ag3
ag3
ag3
aa(lp780
g3
ag3
ag3
ag3
aaa(lp781
(lp782
g3
ag3
ag3
ag3
aa(lp783
g13
ag13
ag19
ag10
aa(lp784
g3
ag3
ag3
ag3
aa(lp785
g3
ag3
ag19
ag3
aa(lp786
g3
ag3
ag3
ag3
aa(lp787
g3
ag13
ag3
ag3
aa(lp788
g3
ag3
ag3
ag3
aa(lp789
g13
ag3
ag3
ag3
aa(lp790
g3
ag3
ag3
ag3
aaa(lp791
(lp792
g3
ag3
ag3
ag3
aa(lp793
g18
ag10
ag10
ag10
aa(lp794
g3
ag3
ag3
ag3
aa(lp795
g3
ag3
ag10
ag3
aa(lp796
g3
ag3
ag3
ag3
aa(lp797
g3
ag10
ag3
ag3
aa(lp798
g3
ag3
ag3
ag3
aa(lp799
g18
ag3
ag3
ag3
aa(lp800
g3
ag3
ag3
ag3
aaa(lp801
(lp802
g3
ag3
ag3
ag3
aa(lp803
g75
ag70
ag75
ag10
aa(lp804
g3
ag3
ag3
ag3
aa(lp805
g3
ag3
ag75
ag3
aa(lp806
g3
ag3
ag3
ag3
aa(lp807
g3
ag70
ag3
ag3
aa(lp808
g3
ag3
ag3
ag3
aa(lp809
g75
ag3
ag3
ag3
aa(lp810
g3
ag3
ag3
ag3
aaa(lp811
(lp812
g3
ag3
ag3
ag3
aa(lp813
g362
ag379
ag362
ag10
aa(lp814
g3
ag3
ag3
ag3
aa(lp815
g3
ag3
ag362
ag3
aa(lp816
g3
ag3
ag3
ag3
aa(lp817
g3
ag379
ag3
ag3
aa(lp818
g3
ag3
ag3
ag3
aa(lp819
g362
ag3
ag3
ag3
aa(lp820
g3
ag3
ag3
ag3
aaa(lp821
(lp822
g3
ag3
ag3
ag3
aa(lp823
g379
ag75
ag75
ag75
aa(lp824
g3
ag3
ag3
ag3
aa(lp825
g3
ag75
ag3
ag3
aa(lp826
g3
ag3
ag3
ag3
aa(lp827
g3
ag3
ag75
ag3
aa(lp828
g3
ag3
ag3
ag3
aa(lp829
g3
ag3
ag3
ag75
aa(lp830
g3
ag3
ag3
ag3
aaa(lp831
(lp832
g3
ag3
ag3
ag3
aa(lp833
g3
ag75
ag3
ag3
aa(lp834
g3
ag3
ag3
ag3
aa(lp835
g3
ag3
ag75
ag3
aa(lp836
g3
ag3
ag3
ag3
aa(lp837
g3
ag379
ag3
ag3
aa(lp838
g3
ag3
ag3
ag3
aa(lp839
g3
ag75
ag3
ag3
aa(lp840
g3
ag3
ag3
ag3
aaa(lp841
(lp842
g3
ag3
ag3
ag3
aa(lp843
g379
ag75
ag75
ag75
aa(lp844
g3
ag3
ag3
ag3
aa(lp845
g3
ag3
ag3
ag3
aa(lp846
g3
ag3
ag3
ag3
aa(lp847
g3
ag3
ag3
ag3
aa(lp848
g3
ag3
ag3
ag3
aa(lp849
g3
ag3
ag3
ag3
aa(lp850
g3
ag3
ag3
ag3
aaa.