(lp0
(lp1
(lp2
S'-'
p3
ag3
ag3
ag3
aa(lp4
S'3'
p5
ag3
ag3
ag3
aa(lp6
g3
ag3
ag3
ag3
aa(lp7
S'7'
p8
ag3
ag3
ag3
aa(lp9
g3
ag3
ag3
ag3
aa(lp10
g5
ag3
ag3
ag3
aa(lp11
g3
ag3
ag3
ag3
aaa(lp12
(lp13
g3
ag3
ag3
ag3
aa(lp14
S'2'
p15
aS'0'
p16
ag16
ag16
aa(lp17
g3
ag3
ag3
ag3
aa(lp18
g3
ag3
ag3
ag3
aa(lp19
g3
ag3
ag3
ag3
aa(lp20
g3
ag3
ag3
ag3
aa(lp21
g3
ag3
ag3
ag3
aaa(lp22
(lp23
g3
ag3
ag3
ag3
aa(lp24
g3
ag3
ag3
ag3
aa(lp25
g3
ag3
ag3
ag3
aa(lp26
g3
ag3
ag3
ag3
aa(lp27
g3
ag3
ag3
ag3
aa(lp28
g5
ag3
ag3
ag3
aa(lp29
g3
ag3
ag3
ag3
aa(lp30
g8
ag3
ag3
ag3
aa(lp31
g3
ag3
ag3
ag3
aa(lp32
g5
ag3
ag3
ag3
aa(lp33
g3
ag3
ag3
ag3
aaa(lp34
(lp35
g3
ag3
ag3
ag3
aa(lp36
S'0'
p37
aS'1'
p38
ag37
aS'2'
p39
aa(lp40
g3
ag3
ag3
ag3
aa(lp41
S'-'
p42
ag42
ag42
aS'2'
p43
aa(lp44
g42
ag42
ag42
ag42
aa(lp45
g16
ag3
ag3
ag3
aa(lp46
g3
ag3
ag3
ag3
aa(lp47
g5
ag3
ag3
ag3
aa(lp48
g3
ag3
ag3
ag3
aa(lp49
g16
ag3
ag3
ag3
aa(lp50
g3
ag3
ag3
ag3
aaa(lp51
(lp52
g3
ag3
ag3
ag3
aa(lp53
S'3'
p54
ag42
ag42
aS'0'
p55
aa(lp56
g3
ag3
ag3
ag3
aa(lp57
S'5'
p58
ag3
ag3
ag3
aa(lp59
g3
ag3
ag3
ag3
aa(lp60
g8
ag3
ag3
ag3
aa(lp61
g3
ag3
ag3
ag3
aaa(lp62
(lp63
g3
ag3
ag3
ag3
aa(lp64
g8
ag58
ag58
ag58
aa(lp65
g3
ag3
ag3
ag3
aa(lp66
g58
ag3
ag3
ag3
aa(lp67
g3
ag3
ag3
ag3
aa(lp68
g3
ag58
ag3
ag3
aa(lp69
g3
ag3
ag3
ag3
aaa(lp70
(lp71
g3
ag3
ag3
ag3
aa(lp72
S'7'
p73
ag42
ag42
aS'5'
p74
aa(lp75
g3
ag3
ag3
ag3
aa(lp76
g58
ag3
ag3
ag3
aa(lp77
g3
ag3
ag3
ag3
aa(lp78
g3
ag58
ag3
ag3
aa(lp79
g3
ag3
ag3
ag3
aa(lp80
g5
ag3
ag3
ag3
aa(lp81
g3
ag3
ag3
ag3
aaa(lp82
(lp83
g3
ag3
ag3
ag3
aag36
a(lp84
g3
ag3
ag3
ag3
aa(lp85
S'-'
p86
ag86
ag86
ag86
aa(lp87
g86
ag86
ag37
ag86
aa(lp88
g3
ag3
ag3
ag3
aa(lp89
g86
ag38
ag86
ag86
aa(lp90
g86
ag86
ag86
ag86
aa(lp91
g86
ag86
ag37
ag86
aa(lp92
g3
ag3
ag3
ag3
aaa(lp93
(lp94
g3
ag3
ag3
ag3
aa(lp95
g86
ag86
ag86
ag39
aa(lp96
g86
ag86
ag86
ag86
aa(lp97
g86
ag86
ag86
ag86
aa(lp98
g3
ag3
ag3
ag3
aa(lp99
g5
ag3
ag3
ag3
aa(lp100
g3
ag3
ag3
ag3
aa(lp101
g58
ag3
ag3
ag3
aa(lp102
g3
ag3
ag3
ag3
aa(lp103
g5
ag3
ag3
ag3
aa(lp104
g3
ag3
ag3
ag3
aaa(lp105
(lp106
g3
ag3
ag3
ag3
aa(lp107
g39
ag37
ag37
ag86
aa(lp108
g3
ag3
ag3
ag3
aa(lp109
g3
ag3
ag3
ag3
aa(lp110
g3
ag3
ag3
ag3
aa(lp111
g3
ag3
ag3
ag3
aa(lp112
g3
ag3
ag3
ag3
aaa(lp113
(lp114
g86
ag86
ag86
ag86
aa(lp115
g86
ag86
ag86
ag86
aa(lp116
g86
ag86
ag86
ag86
aa(lp117
g86
ag86
ag86
ag86
aa(lp118
g39
ag86
ag86
ag86
aa(lp119
g86
ag86
ag86
ag86
aa(lp120
S'5'
p121
ag86
ag86
ag86
aa(lp122
g86
ag86
ag86
ag86
aa(lp123
g39
ag86
ag86
ag86
aa(lp124
g86
ag86
ag86
ag86
aaa(lp125
(lp126
g3
ag3
ag3
ag3
aa(lp127
g3
ag5
aS'4'
p128
ag16
aa(lp129
g3
ag3
ag3
ag3
aa(lp130
g86
ag86
ag86
ag86
aa(lp131
g86
ag86
ag86
ag37
aa(lp132
g3
ag3
ag3
ag3
aa(lp133
g3
ag5
ag3
ag3
aa(lp134
g3
ag3
ag3
ag3
aa(lp135
g15
ag3
ag3
ag3
aa(lp136
g3
ag3
ag3
ag3
aa(lp137
g3
ag5
ag3
ag3
aa(lp138
g3
ag3
ag3
ag3
aaa(lp139
(lp140
g3
ag3
ag3
ag3
aa(lp141
g3
aS'1'
p142
ag15
ag16
aa(lp143
g3
ag3
ag3
ag3
aa(lp144
g86
ag86
ag86
ag37
aa(lp145
g86
ag86
ag86
ag86
aa(lp146
g86
ag86
ag39
ag86
aa(lp147
g86
ag86
ag86
ag86
aa(lp148
g86
ag38
ag86
ag86
aa(lp149
g86
ag86
ag86
ag86
aa(lp150
g86
ag86
ag39
ag86
aa(lp151
g86
ag86
ag86
ag86
aa(lp152
g86
ag86
ag86
ag37
aa(lp153
g86
ag86
ag86
ag86
aa(lp154
g86
ag37
ag86
ag37
aa(lp155
g3
ag3
ag3
ag3
aa(lp156
g86
ag38
ag86
ag37
aa(lp157
g3
ag3
ag3
ag3
aaa(lp158
(lp159
g3
ag3
ag3
ag3
aa(lp160
g86
aS'3'
p161
ag86
ag37
ag37
ag37
aa(lp162
g86
ag86
ag86
ag86
aa(lp163
g86
ag86
ag86
ag37
aa(lp164
g3
ag3
ag3
ag3
aa(lp165
g16
ag3
ag3
ag3
aa(lp166
g3
ag3
ag3
ag3
aa(lp167
g39
ag86
ag86
ag37
aa(lp168
g3
ag3
ag3
ag3
aa(lp169
g3
ag3
ag3
ag3
aaa(lp170
(lp171
g3
ag3
ag3
ag3
aa(lp172
g86
ag86
ag86
ag37
aa(lp173
g86
ag86
ag86
ag86
aa(lp174
g86
ag161
ag86
ag37
aa(lp175
g86
ag86
ag86
ag86
aa(lp176
g37
ag86
ag86
ag37
aa(lp177
g86
ag86
ag86
ag86
aa(lp178
g39
ag86
ag86
ag37
aa(lp179
g86
ag86
ag86
ag86
aa(lp180
g86
ag86
ag86
ag86
aa(lp181
g5
ag3
ag3
ag3
aa(lp182
g3
ag3
ag3
ag3
aa(lp183
g8
ag3
ag3
ag3
aa(lp184
g3
ag3
ag3
ag3
aa(lp185
g5
ag3
ag3
ag3
aa(lp186
g3
ag3
ag3
ag3
aaa(lp187
(lp188
g3
ag3
ag3
ag3
aa(lp189
g15
ag16
ag16
ag16
aa(lp190
g3
ag3
ag3
ag3
aa(lp191
g3
ag16
ag16
ag3
aa(lp192
g3
ag3
ag3
ag3
aa(lp193
g3
ag16
ag16
ag3
aa(lp194
g3
ag3
ag3
ag3
aaa(lp195
(lp196
g3
ag3
ag3
ag3
aa(lp197
g3
ag16
ag16
ag16
aa(lp198
g3
ag3
ag3
ag3
aa(lp199
g3
ag16
ag16
ag3
aa(lp200
g3
ag3
ag3
ag3
aa(lp201
g5
ag3
ag3
ag3
aa(lp202
g3
ag3
ag3
ag3
aa(lp203
g8
ag3
ag3
ag3
aa(lp204
g3
ag3
ag3
ag3
aa(lp205
g5
ag3
ag3
ag3
aa(lp206
g3
ag3
ag3
ag3
aaa(lp207
(lp208
g3
ag3
ag3
ag3
aa(lp209
g37
ag38
ag37
ag39
aa(lp210
g3
ag3
ag3
ag3
aa(lp211
g16
ag3
ag3
ag3
aa(lp212
g3
ag3
ag3
ag3
aa(lp213
g5
ag3
ag3
ag3
aa(lp214
g3
ag3
ag3
ag3
aa(lp215
g16
ag3
ag3
ag3
aa(lp216
g3
ag3
ag3
ag3
aaa(lp217
(lp218
g3
ag3
ag3
ag3
aa(lp219
g5
ag16
ag16
ag16
aa(lp220
g3
ag3
ag3
ag3
aa(lp221
g58
ag3
ag3
ag3
aa(lp222
g3
ag3
ag3
ag3
aa(lp223
g8
ag3
ag3
ag3
aa(lp224
g3
ag3
ag3
ag3
aaa(lp225
(lp226
g3
ag3
ag3
ag3
aa(lp227
g8
ag58
ag58
ag58
aa(lp228
g3
ag3
ag3
ag3
aa(lp229
g58
ag3
ag3
ag3
aa(lp230
g3
ag3
ag3
ag3
aa(lp231
g3
ag58
ag3
ag3
aa(lp232
g3
ag3
ag3
ag3
aaa(lp233
(lp234
g3
ag3
ag3
ag3
aa(lp235
g8
ag58
ag58
ag58
aa(lp236
g3
ag3
ag3
ag3
aa(lp237
g58
ag3
ag3
ag3
aa(lp238
g3
ag3
ag3
ag3
aa(lp239
g3
ag58
ag3
ag3
aa(lp240
g3
ag3
ag3
ag3
aa(lp241
g5
ag3
ag3
ag3
aa(lp242
g3
ag3
ag3
ag3
aaa(lp243
(lp244
g3
ag3
ag3
ag3
aag209
a(lp245
g3
ag3
ag3
ag3
aa(lp246
g3
ag3
ag3
ag3
aa(lp247
g3
ag3
ag3
ag3
aa(lp248
g3
ag3
ag3
ag3
aa(lp249
g3
ag3
ag3
ag3
aaa(lp250
(lp251
g3
ag3
ag3
ag3
aa(lp252
g3
ag3
ag3
ag3
aa(lp253
g3
ag3
ag3
ag3
aa(lp254
g5
ag3
ag3
ag3
aa(lp255
g3
ag3
ag3
ag3
aa(lp256
g58
ag3
ag3
ag3
aa(lp257
g3
ag3
ag3
ag3
aa(lp258
g5
ag3
ag3
ag3
aa(lp259
g3
ag3
ag3
ag3
aaa(lp260
(lp261
g3
ag3
ag3
ag3
aa(lp262
g39
ag37
ag37
ag37
aa(lp263
g3
ag3
ag3
ag3
aa(lp264
g3
ag3
ag3
ag3
aa(lp265
g3
ag3
ag3
ag3
aa(lp266
g3
ag3
ag3
ag3
aa(lp267
g3
ag3
ag3
ag3
aaa(lp268
(lp269
g86
ag86
ag86
ag86
aa(lp270
g86
ag86
ag86
ag86
aa(lp271
g86
ag86
ag86
ag86
aa(lp272
g86
ag86
ag86
ag86
aa(lp273
g39
ag86
ag86
ag86
aa(lp274
g86
ag86
ag86
ag86
aa(lp275
g121
ag86
ag86
ag86
aa(lp276
g86
ag86
ag86
ag86
aa(lp277
g39
ag86
ag86
ag86
aa(lp278
g86
ag86
ag86
ag86
aaa(lp279
(lp280
g3
ag3
ag3
ag3
aa(lp281
g3
ag142
ag15
ag16
aa(lp282
g3
ag3
ag3
ag3
aa(lp283
g86
ag86
ag86
ag37
aa(lp284
g86
ag86
ag86
ag86
aa(lp285
g86
ag86
ag39
ag86
aa(lp286
g86
ag86
ag86
ag86
aa(lp287
g86
ag38
ag86
ag86
aa(lp288
g86
ag86
ag86
ag86
aa(lp289
g86
ag86
ag39
ag86
aa(lp290
g86
ag86
ag86
ag86
aa(lp291
g86
ag86
ag86
ag86
aa(lp292
g86
ag37
ag86
ag37
aa(lp293
g3
ag3
ag3
ag3
aa(lp294
g86
ag38
ag86
ag37
aa(lp295
g3
ag3
ag3
ag3
aaa(lp296
(lp297
g3
ag3
ag3
ag3
aa(lp298
g86
ag161
ag86
ag37
ag37
ag37
aa(lp299
g86
ag86
ag86
ag86
aa(lp300
g86
ag86
ag86
ag37
aa(lp301
g3
ag3
ag3
ag3
aa(lp302
g16
ag3
ag3
ag3
aa(lp303
g3
ag3
ag3
ag3
aa(lp304
g39
ag86
ag86
ag37
aa(lp305
g3
ag3
ag3
ag3
aa(lp306
g3
ag3
ag3
ag3
aaa(lp307
(lp308
g3
ag3
ag3
ag3
aa(lp309
g86
ag86
ag86
ag37
aa(lp310
g86
ag86
ag86
ag86
aa(lp311
g86
ag161
ag86
ag37
aa(lp312
g86
ag86
ag86
ag86
aa(lp313
g37
ag86
ag86
ag37
aa(lp314
g86
ag86
ag86
ag86
aa(lp315
g39
ag86
ag86
ag37
aa(lp316
g86
ag86
ag86
ag86
aa(lp317
g86
ag86
ag86
ag37
aa(lp318
g86
ag86
ag86
ag86
aa(lp319
g5
ag3
ag3
ag3
aa(lp320
g3
ag3
ag3
ag3
aa(lp321
g8
ag3
ag3
ag3
aa(lp322
g3
ag3
ag3
ag3
aa(lp323
g5
ag3
ag3
ag3
aa(lp324
g3
ag3
ag3
ag3
aaa(lp325
(lp326
g86
ag86
ag86
ag86
aa(lp327
g39
ag37
ag37
ag37
aa(lp328
g86
ag86
ag86
ag86
aa(lp329
g86
ag86
ag86
ag37
aa(lp330
g86
ag86
ag86
ag86
aa(lp331
g86
ag37
ag86
ag86
aa(lp332
g86
ag86
ag86
ag86
aa(lp333
g86
ag86
ag37
ag86
aa(lp334
g86
ag86
ag86
ag86
aa(lp335
g86
ag86
ag86
ag37
aa(lp336
g86
ag86
ag86
ag86
aa(lp337
g39
ag37
ag86
ag86
aa(lp338
g86
ag86
ag86
ag86
aa(lp339
g86
ag86
ag86
ag37
aa(lp340
g86
ag86
ag86
ag86
aa(lp341
g161
ag86
ag86
ag86
aa(lp342
g86
ag86
ag86
ag86
aa(lp343
S'7'
p344
ag86
ag86
ag86
aa(lp345
g86
ag86
ag86
ag86
aa(lp346
g161
ag86
ag86
ag86
aa(lp347
g86
ag86
ag86
ag86
aaa(lp348
(lp349
g86
ag86
ag86
ag86
aa(lp350
g37
ag37
ag37
ag39
aa(lp351
g86
ag86
ag86
ag86
aa(lp352
g86
ag86
ag86
ag39
aa(lp353
g86
ag86
ag86
ag86
aa(lp354
g37
ag86
ag86
ag86
aa(lp355
g86
ag86
ag86
ag86
aa(lp356
g161
ag86
ag86
ag86
aa(lp357
g86
ag86
ag86
ag86
aa(lp358
g121
ag86
ag86
ag86
aa(lp359
g86
ag86
ag86
ag86
aaa(lp360
(lp361
g86
ag86
ag86
ag86
aa(lp362
g344
ag86
ag86
ag37
aa(lp363
g86
ag86
ag86
ag86
aa(lp364
g86
ag86
ag86
ag37
aa(lp365
g86
ag86
ag86
ag86
aa(lp366
g344
ag86
ag86
ag86
aa(lp367
g86
ag86
ag86
ag86
aa(lp368
g86
ag37
ag86
ag86
aa(lp369
g86
ag86
ag86
ag86
aa(lp370
g86
ag86
ag37
ag86
aa(lp371
g86
ag86
ag86
ag86
aaa(lp372
(lp373
g86
ag86
ag86
ag86
aa(lp374
g344
ag121
ag121
ag121
aa(lp375
g86
ag86
ag86
ag86
aa(lp376
g86
ag86
ag86
ag121
aa(lp377
g86
ag86
ag86
ag86
aa(lp378
g121
ag86
ag86
ag86
aa(lp379
g86
ag86
ag86
ag86
aa(lp380
g86
ag86
ag86
ag121
aa(lp381
g86
ag86
ag86
ag86
aa(lp382
g86
ag86
ag86
ag86
aa(lp383
g86
ag86
ag86
ag86
aa(lp384
g86
ag121
ag86
ag86
aa(lp385
g86
ag86
ag86
ag86
aaa(lp386
(lp387
g86
ag86
ag86
ag86
aa(lp388
g344
ag86
ag86
ag121
aa(lp389
g86
ag86
ag86
ag86
aa(lp390
g121
ag86
ag86
ag86
aa(lp391
g86
ag86
ag86
ag86
aa(lp392
g161
ag86
ag86
ag86
aa(lp393
g86
ag86
ag86
ag86
aaa(lp394
(lp395
g86
ag86
ag86
ag86
aa(lp396
g37
ag38
ag37
ag39
aa(lp397
g86
ag86
ag86
ag86
aa(lp398
g86
ag86
ag86
ag39
aa(lp399
g86
ag86
ag86
ag86
aa(lp400
g86
ag38
ag86
ag86
aa(lp401
g86
ag86
ag86
ag86
aa(lp402
g86
ag86
ag37
ag86
aa(lp403
g86
ag86
ag86
ag86
aa(lp404
g86
ag86
ag86
ag39
aa(lp405
g86
ag86
ag86
ag86
aaa(lp406
(lp407
S'-'
p408
ag408
ag408
ag408
aa(lp409
S'0'
p410
aS'1'
p411
ag410
aS'2'
p412
aa(lp413
g408
ag408
ag408
ag408
aa(lp414
g408
ag408
ag408
ag408
aa(lp415
g408
ag408
ag408
ag408
aa(lp416
S'3'
p417
ag408
ag408
ag408
aa(lp418
g408
ag408
ag408
ag408
aa(lp419
S'5'
p420
ag408
ag408
ag408
aa(lp421
g408
ag408
ag408
ag408
aa(lp422
g417
ag408
ag408
ag408
aa(lp423
g408
ag408
ag408
ag408
aaa(lp424
(lp425
g86
ag86
ag86
ag86
aa(lp426
g39
ag86
ag86
ag37
aa(lp427
g86
ag86
ag86
ag86
aa(lp428
g86
ag86
ag86
ag37
aa(lp429
g86
ag86
ag86
ag86
aa(lp430
g86
ag37
ag86
ag86
aa(lp431
g86
ag86
ag86
ag86
aa(lp432
g86
ag86
ag37
ag86
aa(lp433
g86
ag86
ag86
ag86
aa(lp434
g86
ag86
ag86
ag37
aa(lp435
g86
ag86
ag86
ag86
aaa(lp436
(lp437
g408
ag408
ag408
ag408
aa(lp438
g412
ag410
ag408
ag408
aa(lp439
g408
ag408
ag408
ag408
aa(lp440
g408
ag408
ag408
ag410
aa(lp441
g408
ag408
ag408
ag408
aa(lp442
g412
ag408
ag408
ag408
aa(lp443
g408
ag408
ag408
ag408
aa(lp444
g420
ag408
ag408
ag408
aa(lp445
g408
ag408
ag408
ag408
aa(lp446
g412
ag408
ag408
ag408
aa(lp447
g408
ag408
ag408
ag408
aaa(lp448
(lp449
g86
ag86
ag86
ag86
aa(lp450
g412
ag408
ag408
ag410
aa(lp451
g408
ag408
ag408
ag408
aa(lp452
g408
ag408
ag408
ag410
aa(lp453
g408
ag408
ag408
ag408
aa(lp454
g408
ag417
ag408
ag408
aa(lp455
g408
ag408
ag408
ag408
aa(lp456
g412
ag408
ag408
ag408
aa(lp457
g408
ag408
ag408
ag408
aa(lp458
g408
ag417
ag408
ag408
aa(lp459
g408
ag408
ag408
ag408
aaa(lp460
(lp461
g3
ag3
ag3
ag3
aa(lp462
g412
ag411
ag412
ag410
aa(lp463
g3
ag3
ag3
ag3
aa(lp464
g86
ag86
ag86
ag37
aa(lp465
g86
ag86
ag86
ag86
aa(lp466
g86
ag86
ag39
ag86
aa(lp467
g86
ag86
ag86
ag86
aa(lp468
g86
ag38
ag86
ag86
aa(lp469
g86
ag86
ag86
ag86
aa(lp470
g86
ag86
ag39
ag86
aa(lp471
g86
ag86
ag86
ag86
aa(lp472
g86
ag86
ag86
ag86
aa(lp473
g86
ag37
ag86
ag37
aa(lp474
g3
ag3
ag3
ag3
aa(lp475
g86
ag38
ag86
ag37
aa(lp476
g3
ag3
ag3
ag3
aaa(lp477
(lp478
g3
ag3
ag3
ag3
aa(lp479
g86
ag161
ag86
ag37
ag37
ag37
aa(lp480
g86
ag86
ag86
ag86
aa(lp481
g86
ag86
ag86
ag37
aa(lp482
g3
ag3
ag3
ag3
aa(lp483
g16
ag3
ag3
ag3
aa(lp484
g3
ag3
ag3
ag3
aa(lp485
g39
ag86
ag86
ag37
aa(lp486
g3
ag3
ag3
ag3
aa(lp487
g3
ag3
ag3
ag3
aaa(lp488
(lp489
g3
ag3
ag3
ag3
aa(lp490
g86
ag86
ag86
ag37
aa(lp491
g86
ag86
ag86
ag86
aa(lp492
g86
ag161
ag86
ag37
aa(lp493
g86
ag86
ag86
ag86
aa(lp494
g37
ag86
ag86
ag37
aa(lp495
g86
ag86
ag86
ag86
aa(lp496
g39
ag86
ag86
ag37
aa(lp497
g86
ag86
ag86
ag86
aa(lp498
g86
ag86
ag86
ag37
aa(lp499
g86
ag86
ag86
ag86
aa(lp500
g5
ag3
ag3
ag3
aa(lp501
g3
ag3
ag3
ag3
aa(lp502
g8
ag3
ag3
ag3
aa(lp503
g3
ag3
ag3
ag3
aa(lp504
g5
ag3
ag3
ag3
aa(lp505
g3
ag3
ag3
ag3
aaa(lp506
(lp507
g3
ag3
ag3
ag3
aa(lp508
g15
ag16
ag16
ag16
aa(lp509
g3
ag3
ag3
ag3
aa(lp510
g3
ag3
ag3
ag3
aa(lp511
g3
ag3
ag3
ag3
aa(lp512
g3
ag3
ag3
ag3
aa(lp513
g3
ag3
ag3
ag3
aaa(lp514
(lp515
g408
ag408
ag408
ag408
aa(lp516
g408
ag408
ag408
ag408
aa(lp517
g408
ag408
ag408
ag408
aa(lp518
g408
ag408
ag408
ag408
aa(lp519
g408
ag408
ag408
ag408
aa(lp520
g412
ag408
ag408
ag408
aa(lp521
g408
ag408
ag408
ag408
aa(lp522
g417
ag408
ag408
ag408
aa(lp523
g408
ag408
ag408
ag408
aa(lp524
g412
ag408
ag408
ag408
aa(lp525
g408
ag408
ag408
ag408
aaa(lp526
(lp527
g408
ag408
ag408
ag408
aa(lp528
g417
ag408
ag408
ag408
aa(lp529
g408
ag408
ag408
ag408
aa(lp530
g408
ag408
ag408
ag408
aa(lp531
g408
ag408
ag408
ag408
aa(lp532
g408
ag408
ag408
ag408
aa(lp533
g408
ag408
ag408
ag408
aaa.