(lp0
(lp1
(lp2
S'-'
p3
ag3
ag3
ag3
aa(lp4
g3
ag3
aS'2'
p5
ag3
aa(lp6
g3
ag3
ag3
ag3
aaa(lp7
(lp8
g3
ag3
ag3
ag3
aa(lp9
g3
ag3
aS'3'
p10
ag3
aa(lp11
g3
ag3
ag3
ag3
aa(lp12
g3
ag5
ag3
ag3
aa(lp13
g3
ag3
ag3
ag3
aa(lp14
g3
ag3
ag3
ag5
aa(lp15
g3
ag3
ag3
ag3
aa(lp16
S'4'
p17
ag3
ag3
ag3
aa(lp18
g3
ag3
ag3
ag3
aaa(lp19
(lp20
g3
ag3
ag3
ag3
aa(lp21
g3
ag3
ag5
ag3
aa(lp22
g3
ag3
ag3
ag3
aa(lp23
g3
aS'0'
p24
ag3
ag3
aa(lp25
g3
ag3
ag3
ag3
aa(lp26
g3
ag3
ag3
aS'1'
p27
aa(lp28
g3
ag3
ag3
ag3
aa(lp29
g5
ag3
ag3
ag3
aa(lp30
g3
ag3
ag3
ag3
aaa(lp31
(lp32
g3
ag3
ag3
ag3
aa(lp33
g24
ag24
ag27
ag5
aa(lp34
g3
ag3
ag3
ag3
aa(lp35
g3
ag3
ag3
ag3
aa(lp36
g3
ag3
ag3
ag3
aag33
a(lp37
g3
ag3
ag3
ag3
aa(lp38
g3
ag3
ag3
ag3
aa(lp39
g3
ag3
ag3
ag3
aaa(lp40
(lp41
g3
ag3
ag3
ag3
aa(lp42
g24
ag5
ag27
ag5
aa(lp43
g3
ag3
ag3
ag3
aag42
a(lp44
g3
ag3
ag3
ag3
aa(lp45
g3
ag3
ag3
ag3
aa(lp46
g3
ag3
ag3
ag3
aa(lp47
g3
ag3
ag5
ag3
aa(lp48
g3
ag3
ag3
ag3
aaa(lp49
(lp50
g3
ag3
ag3
ag3
aa(lp51
g3
ag3
ag10
ag3
aa(lp52
g3
ag3
ag3
ag3
aa(lp53
g3
ag5
ag3
ag3
aa(lp54
g3
ag3
ag3
ag3
aa(lp55
g3
ag3
ag3
ag5
aa(lp56
g3
ag3
ag3
ag3
aa(lp57
g17
ag3
ag3
ag3
aa(lp58
g3
ag3
ag3
ag3
aaa(lp59
(lp60
g3
ag3
ag3
ag3
aa(lp61
g3
ag3
ag5
ag3
aa(lp62
g3
ag3
ag3
ag3
aa(lp63
g3
ag24
ag3
ag3
aa(lp64
g3
ag3
ag3
ag3
aa(lp65
g3
ag3
ag3
ag27
aa(lp66
g3
ag3
ag3
ag3
aa(lp67
g5
ag3
ag3
ag3
aa(lp68
g3
ag3
ag3
ag3
aaa(lp69
(lp70
g3
ag3
ag3
ag3
aa(lp71
g24
ag24
ag27
ag5
aa(lp72
g3
ag3
ag3
ag3
aa(lp73
g3
ag3
ag3
ag3
aa(lp74
g3
ag3
ag3
ag3
aag71
a(lp75
g3
ag3
ag3
ag3
aa(lp76
g3
ag3
ag3
ag3
aa(lp77
g3
ag3
ag3
ag3
aaa(lp78
(lp79
g3
ag3
ag3
ag3
aa(lp80
g24
ag24
ag27
ag5
aa(lp81
g3
ag3
ag3
ag3
aa(lp82
g3
ag3
ag3
ag3
aa(lp83
g3
ag3
ag3
ag3
aag80
a(lp84
g3
ag3
ag3
ag3
aa(lp85
g3
ag3
ag3
ag3
aa(lp86
g3
ag3
ag3
ag3
aaa(lp87
(lp88
g3
ag3
ag3
ag3
aag33
a(lp89
g3
ag3
ag3
ag3
aa(lp90
g3
ag3
ag3
ag3
aa(lp91
g3
ag3
ag3
ag3
aa(lp92
g3
ag3
ag3
ag3
aa(lp93
g3
ag3
ag3
ag3
aa(lp94
g3
ag3
ag3
ag3
aaa(lp95
a.