(lp0
(lp1
(lp2
S'-'
p3
ag3
ag3
ag3
aa(lp4
g3
ag3
aS'2'
p5
ag3
aa(lp6
g3
ag3
ag3
ag3
aaa(lp7
(lp8
g3
ag3
ag3
ag3
aa(lp9
g3
ag3
aS'3'
p10
ag3
aa(lp11
g3
ag3
ag3
ag3
aa(lp12
g3
ag5
ag3
ag3
aa(lp13
g3
ag3
ag3
ag3
aa(lp14
g3
ag3
ag3
ag5
aa(lp15
g3
ag3
ag3
ag3
aa(lp16
S'4'
p17
ag3
ag3
ag3
aa(lp18
g3
ag3
ag3
ag3
aaa(lp19
(lp20
g3
ag3
ag3
ag3
aa(lp21
g3
ag3
ag5
ag3
aa(lp22
g3
ag3
ag3
ag3
aa(lp23
g3
aS'0'
p24
ag3
ag3
aa(lp25
g3
ag3
ag3
ag3
aa(lp26
g3
ag3
ag3
aS'1'
p27
aa(lp28
g3
ag3
ag3
ag3
aa(lp29
g5
ag3
ag3
ag3
aa(lp30
g3
ag3
ag3
ag3
aaa(lp31
(lp32
g3
ag3
ag3
ag3
aa(lp33
g24
ag24
ag27
ag5
aa(lp34
g3
ag3
ag3
ag3
aa(lp35
g3
ag3
ag3
ag3
aa(lp36
g3
ag3
ag3
ag3
aag33
a(lp37
g3
ag3
ag3
ag3
aa(lp38
g3
ag3
ag3
ag3
aa(lp39
g3
ag3
ag3
ag3
aaa(lp40
(lp41
g3
ag3
ag3
ag3
aa(lp42
g24
ag5
ag27
ag5
aa(lp43
g3
ag3
ag3
ag3
aag42
a(lp44
g3
ag3
ag3
ag3
aa(lp45
g3
ag3
ag3
ag3
aa(lp46
g3
ag3
ag3
ag3
aa(lp47
g3
ag3
ag5
ag3
aa(lp48
g3
ag3
ag3
ag3
aaa(lp49
(lp50
g3
ag3
ag3
ag3
aa(lp51
g3
ag3
ag10
ag3
aa(lp52
g3
ag3
ag3
ag3
aa(lp53
g3
ag5
ag3
ag3
aa(lp54
g3
ag3
ag3
ag3
aa(lp55
g3
ag3
ag3
ag5
aa(lp56
g3
ag3
ag3
ag3
aa(lp57
g17
ag3
ag3
ag3
aa(lp58
g3
ag3
ag3
ag3
aaa(lp59
(lp60
g3
ag3
ag3
ag3
aa(lp61
g3
ag3
ag5
ag3
aa(lp62
g3
ag3
ag3
ag3
aa(lp63
g3
ag24
ag3
ag3
aa(lp64
g3
ag3
ag3
ag3
aa(lp65
g3
ag3
ag3
ag27
aa(lp66
g3
ag3
ag3
ag3
aa(lp67
g5
ag3
ag3
ag3
aa(lp68
g3
ag3
ag3
ag3
aaa(lp69
(lp70
g3
ag3
ag3
ag3
aa(lp71
g24
ag24
ag27
ag5
aa(lp72
g3
ag3
ag3
ag3
aa(lp73
g3
ag3
ag3
ag3
aa(lp74
g3
ag3
ag3
ag3
aag71
a(lp75
g3
ag3
ag3
ag3
aa(lp76
g3
ag3
ag3
ag3
aa(lp77
g3
ag3
ag3
ag3
aaa(lp78
(lp79
g3
ag3
ag3
ag3
aa(lp80
g24
ag24
ag27
ag5
aa(lp81
g3
ag3
ag3
ag3
aa(lp82
g3
ag3
ag3
ag3
aa(lp83
g3
ag3
ag3
ag3
aag80
a(lp84
g3
ag3
ag3
ag3
aa(lp85
g3
ag3
ag3
ag3
aa(lp86
g3
ag3
ag3
ag3
aaa(lp87
(lp88
g3
ag3
ag3
ag3
aag33
a(lp89
g3
ag3
ag3
ag3
aa(lp90
g3
ag3
ag3
ag3
aa(lp91
S'-'
p92
ag92
ag92
ag92
aa(lp93
g92
ag92
ag92
ag92
aa(lp94
g92
aS'0'
p95
ag92
ag92
aa(lp96
g92
ag92
ag92
ag92
aaa(lp97
(lp98
g92
ag92
ag92
ag92
aa(lp99
S'4'
p100
ag92
ag92
aS'2'
p101
aa(lp102
g92
ag92
ag92
ag92
aa(lp103
g92
ag92
ag92
ag92
aa(lp104
g92
ag92
ag92
ag92
aa(lp105
S'3'
p106
ag92
ag92
ag101
aa(lp107
g92
ag92
ag92
ag92
aa(lp108
g92
ag92
ag92
ag92
aa(lp109
g92
ag92
ag92
ag92
aaa(lp110
(lp111
g92
ag92
ag92
ag92
aa(lp112
g101
ag95
ag101
aS'1'
p113
aa(lp114
g92
ag92
ag92
ag92
aa(lp115
g92
ag92
ag92
ag92
aa(lp116
g92
ag92
ag92
ag92
aa(lp117
g92
ag92
ag92
ag113
aa(lp118
g92
ag92
ag92
ag92
aaa(lp119
(lp120
g92
ag92
ag92
ag92
aa(lp121
g92
ag92
ag101
ag92
aa(lp122
g92
ag92
ag92
ag92
aa(lp123
g92
ag92
ag92
ag92
aa(lp124
g92
ag92
ag92
ag92
aaa(lp125
(lp126
g92
ag92
ag92
ag92
aa(lp127
g101
ag95
ag101
ag113
aa(lp128
g92
ag92
ag92
ag92
aa(lp129
g92
ag92
ag92
ag92
aa(lp130
g92
ag92
ag92
ag92
aa(lp131
g92
ag95
ag92
ag92
aa(lp132
g92
ag92
ag92
ag92
aaa(lp133
(lp134
g92
ag92
ag92
ag92
aa(lp135
S'6'
p136
ag92
ag92
ag92
aa(lp137
g92
ag92
ag92
ag92
aa(lp138
S'5'
p139
ag92
ag92
ag92
aa(lp140
g92
ag92
ag92
ag92
aa(lp141
g100
ag92
ag92
ag92
aa(lp142
g92
ag92
ag92
ag92
aaa(lp143
(lp144
g92
ag92
ag92
ag92
aa(lp145
g95
ag95
ag113
ag101
aa(lp146
g92
ag92
ag92
ag92
aa(lp147
g92
ag92
ag92
ag92
aa(lp148
g92
ag92
ag92
ag92
aa(lp149
g92
ag95
ag92
ag92
aa(lp150
g92
ag92
ag92
ag92
aaa(lp151
(lp152
g92
ag92
ag92
ag92
aa(lp153
g92
ag92
ag113
ag92
aa(lp154
g92
ag92
ag92
ag92
aa(lp155
g92
ag92
ag92
ag92
aa(lp156
g92
ag92
ag92
ag92
aaa(lp157
(lp158
g92
ag92
ag92
ag92
aag145
a(lp159
g92
ag92
ag92
ag92
aa(lp160
g92
ag92
ag92
ag92
aa(lp161
g92
ag92
ag92
ag92
aa(lp162
g92
ag95
ag92
ag92
aa(lp163
g92
ag92
ag92
ag92
aa(lp164
g92
ag95
ag92
ag92
aa(lp165
g92
ag92
ag92
ag92
aaa(lp166
(lp167
g92
ag92
ag92
ag92
aa(lp168
g100
ag92
ag92
ag101
aa(lp169
g92
ag92
ag92
ag92
aa(lp170
g92
ag92
ag92
ag92
aa(lp171
g92
ag92
ag92
ag92
aa(lp172
g106
ag92
ag92
ag101
aa(lp173
g92
ag92
ag92
ag92
aa(lp174
g92
ag92
ag92
ag92
aa(lp175
g92
ag92
ag92
ag92
aaa(lp176
(lp177
g92
ag92
ag92
ag92
aa(lp178
g101
ag95
ag101
ag113
aa(lp179
g92
ag92
ag92
ag92
aa(lp180
g101
ag92
ag92
ag92
aa(lp181
g92
ag92
ag92
ag92
aa(lp182
g92
ag92
ag92
ag92
aa(lp183
g92
ag92
ag92
ag92
aa(lp184
g92
ag92
ag92
ag113
aa(lp185
g92
ag92
ag92
ag92
aaa(lp186
(lp187
g92
ag92
ag92
ag92
aa(lp188
g92
ag92
ag101
ag92
aa(lp189
g92
ag92
ag92
ag92
aa(lp190
g92
ag92
ag92
ag92
aa(lp191
g92
ag92
ag92
ag92
aaa(lp192
(lp193
g92
ag92
ag92
ag92
aa(lp194
g101
ag95
ag101
ag113
aa(lp195
g92
ag92
ag92
ag92
aa(lp196
g92
ag92
ag92
ag92
aa(lp197
g92
ag92
ag92
ag92
aa(lp198
g92
ag92
ag92
ag92
aa(lp199
g92
ag95
ag92
ag92
aa(lp200
g92
ag92
ag92
ag92
aaa(lp201
(lp202
g92
ag92
ag92
ag92
aa(lp203
g136
ag92
ag92
ag92
aa(lp204
g92
ag92
ag92
ag92
aa(lp205
g139
ag92
ag92
ag92
aa(lp206
g92
ag92
ag92
ag92
aa(lp207
g100
ag92
ag92
ag92
aa(lp208
g92
ag92
ag92
ag92
aaa(lp209
(lp210
g3
ag3
ag3
ag3
aa(lp211
g24
ag24
ag27
ag5
aa(lp212
g3
ag3
ag3
ag3
aa(lp213
g3
ag3
ag3
ag3
aa(lp214
g3
ag3
ag3
ag3
aag211
a(lp215
g3
ag3
ag3
ag3
aa(lp216
g3
ag3
ag3
ag3
aa(lp217
g3
ag3
ag3
ag3
aaa(lp218
(lp219
g3
ag3
ag3
ag3
aa(lp220
g24
ag5
ag27
ag5
aa(lp221
g3
ag3
ag3
ag3
aag220
a(lp222
g3
ag3
ag3
ag3
aa(lp223
g3
ag3
ag3
ag3
aa(lp224
g3
ag3
ag3
ag3
aa(lp225
g3
ag3
ag5
ag3
aa(lp226
g3
ag3
ag3
ag3
aaa(lp227
(lp228
g3
ag3
ag3
ag3
aa(lp229
g3
ag3
ag10
ag3
aa(lp230
g3
ag3
ag3
ag3
aa(lp231
g3
ag5
ag3
ag3
aa(lp232
g3
ag3
ag3
ag3
aa(lp233
g3
ag3
ag3
ag5
aa(lp234
g3
ag3
ag3
ag3
aa(lp235
g17
ag3
ag3
ag3
aa(lp236
g3
ag3
ag3
ag3
aaa(lp237
(lp238
g3
ag3
ag3
ag3
aa(lp239
g3
ag3
ag5
ag3
aa(lp240
g3
ag3
ag3
ag3
aa(lp241
g3
ag24
ag3
ag3
aa(lp242
g3
ag3
ag3
ag3
aa(lp243
g3
ag3
ag3
ag27
aa(lp244
g3
ag3
ag3
ag3
aa(lp245
g5
ag3
ag3
ag3
aa(lp246
g3
ag3
ag3
ag3
aaa(lp247
(lp248
g3
ag3
ag3
ag3
aa(lp249
g24
ag24
ag27
ag5
aa(lp250
g3
ag3
ag3
ag3
aa(lp251
g3
ag3
ag3
ag3
aa(lp252
g3
ag3
ag3
ag3
aag249
a(lp253
g3
ag3
ag3
ag3
aa(lp254
g3
ag3
ag3
ag3
aa(lp255
g3
ag3
ag3
ag3
aaa(lp256
(lp257
g3
ag3
ag3
ag3
aa(lp258
g24
ag5
ag27
ag5
aa(lp259
g3
ag3
ag3
ag3
aag258
a(lp260
g3
ag3
ag3
ag3
aa(lp261
g3
ag3
ag3
ag3
aa(lp262
g3
ag3
ag3
ag3
aa(lp263
g3
ag3
ag5
ag3
aa(lp264
g3
ag3
ag3
ag3
aaa(lp265
(lp266
g3
ag3
ag3
ag3
aa(lp267
g3
ag3
ag10
ag3
aa(lp268
g3
ag3
ag3
ag3
aa(lp269
g3
ag5
ag3
ag3
aa(lp270
g3
ag3
ag3
ag3
aa(lp271
g3
ag3
ag3
ag5
aa(lp272
g3
ag3
ag3
ag3
aa(lp273
g17
ag3
ag3
ag3
aa(lp274
g3
ag3
ag3
ag3
aaa(lp275
(lp276
g3
ag3
ag3
ag3
aa(lp277
g3
ag3
ag5
ag3
aa(lp278
g3
ag3
ag3
ag3
aa(lp279
g3
ag24
ag3
ag3
aa(lp280
g3
ag3
ag3
ag3
aa(lp281
g3
ag3
ag3
ag27
aa(lp282
g3
ag3
ag3
ag3
aa(lp283
g5
ag3
ag3
ag3
aa(lp284
g3
ag3
ag3
ag3
aaa(lp285
(lp286
g3
ag3
ag3
ag3
aa(lp287
g24
ag24
ag27
ag5
aa(lp288
g3
ag3
ag3
ag3
aa(lp289
g3
ag3
ag3
ag3
aa(lp290
g3
ag3
ag3
ag3
aag287
a(lp291
g3
ag3
ag3
ag3
aa(lp292
g3
ag3
ag3
ag3
aa(lp293
g3
ag3
ag3
ag3
aaa(lp294
(lp295
g3
ag3
ag3
ag3
aa(lp296
g24
ag24
ag27
ag5
aa(lp297
g3
ag3
ag3
ag3
aa(lp298
g3
ag3
ag3
ag3
aa(lp299
g3
ag3
ag3
ag3
aag296
a(lp300
g3
ag3
ag3
ag3
aa(lp301
g3
ag3
ag3
ag3
aa(lp302
g3
ag3
ag3
ag3
aaa(lp303
(lp304
g92
ag92
ag92
ag92
aag145
a(lp305
g92
ag92
ag92
ag92
aa(lp306
g92
ag92
ag92
ag92
aa(lp307
g92
ag92
ag92
ag92
aa(lp308
g92
ag92
ag92
ag92
aaa.