(lp0
(lp1
(lp2
S'-'
p3
ag3
ag3
ag3
aa(lp4
g3
ag3
aS'0'
p5
ag3
aa(lp6
S'-'
p7
ag7
ag7
ag7
aa(lp8
S'0'
p9
aS'2'
p10
ag9
ag10
aa(lp11
g3
ag3
ag3
ag3
aa(lp12
S'3'
p13
ag10
ag13
ag10
aa(lp14
g3
ag3
ag3
ag3
aa(lp15
g3
ag3
ag3
ag3
aa(lp16
g3
ag3
ag3
ag3
aa(lp17
g3
ag3
ag3
ag3
aaa(lp18
(lp19
g3
ag3
ag3
ag3
aa(lp20
S'2'
p21
ag5
ag21
ag5
aa(lp22
g3
ag3
ag3
ag3
aa(lp23
g3
ag3
ag3
ag3
aa(lp24
g3
ag3
ag3
ag3
aa(lp25
g3
aS'3'
p26
ag3
ag3
aa(lp27
g3
ag3
ag3
ag3
aa(lp28
g5
ag3
ag3
ag3
aa(lp29
g3
ag3
ag3
ag3
aaa(lp30
(lp31
g3
ag3
ag3
ag3
aa(lp32
g21
ag5
ag5
aS'1'
p33
aa(lp34
g3
ag3
ag3
ag3
aa(lp35
g3
ag3
ag3
ag3
aa(lp36
g3
ag3
ag3
ag3
aa(lp37
g26
ag5
ag5
ag21
aa(lp38
g3
ag3
ag3
ag3
aa(lp39
g3
ag3
ag3
ag3
aa(lp40
g3
ag3
ag3
ag3
aaa(lp41
(lp42
g3
ag3
ag3
ag3
aa(lp43
g3
ag3
ag5
ag3
aa(lp44
g3
ag3
ag3
ag3
aa(lp45
g5
ag33
ag5
ag21
aa(lp46
g3
ag3
ag3
ag3
aa(lp47
g21
ag33
ag33
ag5
aa(lp48
g3
ag3
ag3
ag3
aa(lp49
g21
ag33
ag33
ag5
aa(lp50
g3
ag3
ag3
ag3
aaa(lp51
(lp52
g3
ag3
ag3
ag3
aa(lp53
g3
ag26
ag21
ag26
aa(lp54
g3
ag3
ag3
ag3
aa(lp55
g3
ag3
ag3
ag26
aa(lp56
g3
ag3
ag3
ag3
aa(lp57
g3
ag3
ag21
ag3
aa(lp58
g3
ag3
ag3
ag3
aa(lp59
g3
ag26
ag3
ag3
aa(lp60
g3
ag3
ag3
ag3
aa(lp61
g5
ag3
ag3
ag3
aa(lp62
g3
ag3
ag3
ag3
aa(lp63
g3
ag26
ag3
ag3
aa(lp64
g3
ag3
ag3
ag3
aa(lp65
g3
ag3
ag21
ag3
aa(lp66
g3
ag3
ag3
ag3
aa(lp67
g3
ag3
ag3
ag26
aa(lp68
g3
ag3
ag3
ag3
aaa(lp69
(lp70
g3
ag3
ag3
ag3
aa(lp71
g3
ag3
ag3
ag21
aa(lp72
g3
ag3
ag3
ag3
aa(lp73
g3
ag33
ag5
ag21
aa(lp74
g3
ag3
ag3
ag3
aa(lp75
g3
ag33
ag5
ag33
aa(lp76
g3
ag3
ag3
ag3
aa(lp77
g3
ag3
ag3
ag33
aa(lp78
g3
ag3
ag3
ag3
aa(lp79
g3
ag3
ag5
ag3
aa(lp80
g3
ag3
ag3
ag3
aa(lp81
g3
ag33
ag3
ag3
aa(lp82
g3
ag3
ag3
ag3
aaa(lp83
(lp84
g3
ag3
ag3
ag3
aa(lp85
g3
ag5
ag5
ag5
aa(lp86
g3
ag3
ag3
ag3
aa(lp87
g3
ag3
ag5
ag3
aa(lp88
g3
ag3
ag3
ag3
aa(lp89
g3
ag3
ag21
ag3
aa(lp90
g3
ag3
ag3
ag3
aaa(lp91
(lp92
g3
ag3
ag3
ag3
aa(lp93
g3
ag5
ag5
ag33
aa(lp94
g3
ag3
ag3
ag3
aa(lp95
g3
ag3
ag3
ag3
aa(lp96
g3
ag3
ag3
ag3
aa(lp97
g3
ag33
ag33
ag5
aa(lp98
g3
ag3
ag3
ag3
aa(lp99
g3
ag3
ag3
ag3
aa(lp100
g3
ag3
ag3
ag3
aaa(lp101
(lp102
g3
ag3
ag3
ag3
aa(lp103
S'5'
p104
ag33
ag5
ag5
aa(lp105
g3
ag3
ag3
ag3
aa(lp106
g21
ag3
ag3
ag3
aa(lp107
g3
ag3
ag3
ag3
aa(lp108
g26
ag3
ag3
ag3
aa(lp109
g3
ag3
ag3
ag3
aaa(lp110
(lp111
g3
ag3
ag3
ag3
aa(lp112
g104
ag33
ag21
ag5
aa(lp113
g3
ag3
ag3
ag3
aa(lp114
g3
ag3
ag3
ag3
aa(lp115
g3
ag3
ag3
ag3
aa(lp116
S'7'
p117
aS'4'
p118
ag104
ag118
aa(lp119
g3
ag3
ag3
ag3
aa(lp120
g3
ag3
ag3
ag3
aa(lp121
g3
ag3
ag3
ag3
aaa(lp122
(lp123
g3
ag3
ag3
ag3
aa(lp124
g26
ag5
ag5
ag5
aa(lp125
g3
ag3
ag3
ag3
aag124
a(lp126
g3
ag3
ag3
ag3
aa(lp127
g26
ag33
ag5
ag5
aa(lp128
g3
ag3
ag3
ag3
aa(lp129
g26
ag33
ag21
ag5
aa(lp130
g3
ag3
ag3
ag3
aaa(lp131
(lp132
g3
ag3
ag3
ag3
aa(lp133
g3
ag3
ag5
ag3
aa(lp134
g3
ag3
ag3
ag3
aa(lp135
g9
ag10
ag9
ag10
aa(lp136
g3
ag3
ag3
ag3
aa(lp137
g13
ag10
ag13
ag10
aa(lp138
g3
ag3
ag3
ag3
aa(lp139
g3
ag3
ag3
ag3
aa(lp140
g3
ag3
ag3
ag3
aa(lp141
g3
ag3
ag3
ag3
aaa(lp142
(lp143
g3
ag3
ag3
ag3
aa(lp144
g21
ag5
ag21
ag5
aa(lp145
g3
ag3
ag3
ag3
aa(lp146
g3
ag3
ag3
ag3
aa(lp147
g3
ag3
ag3
ag3
aa(lp148
g3
ag26
ag3
ag3
aa(lp149
g3
ag3
ag3
ag3
aa(lp150
g5
ag3
ag3
ag3
aa(lp151
g3
ag3
ag3
ag3
aaa(lp152
(lp153
g3
ag3
ag3
ag3
aa(lp154
g21
ag5
ag5
ag33
aa(lp155
g3
ag3
ag3
ag3
aa(lp156
g3
ag3
ag3
ag3
aa(lp157
g3
ag3
ag3
ag3
aa(lp158
g26
ag5
ag5
ag21
aa(lp159
g3
ag3
ag3
ag3
aa(lp160
g3
ag3
ag3
ag3
aa(lp161
g3
ag3
ag3
ag3
aaa(lp162
(lp163
g3
ag3
ag3
ag3
aa(lp164
g3
ag3
ag5
ag3
aa(lp165
g3
ag3
ag3
ag3
aa(lp166
g5
ag33
ag5
ag21
aa(lp167
g3
ag3
ag3
ag3
aa(lp168
g21
ag33
ag33
ag5
aa(lp169
g3
ag3
ag3
ag3
aa(lp170
g21
ag33
ag33
ag5
aa(lp171
g3
ag3
ag3
ag3
aaa(lp172
(lp173
g3
ag3
ag3
ag3
aa(lp174
g3
ag26
ag21
ag26
aa(lp175
g3
ag3
ag3
ag3
aa(lp176
g3
ag3
ag3
ag26
aa(lp177
g3
ag3
ag3
ag3
aa(lp178
g3
ag3
ag21
ag3
aa(lp179
g3
ag3
ag3
ag3
aa(lp180
g3
ag26
ag3
ag3
aa(lp181
g3
ag3
ag3
ag3
aa(lp182
g5
ag3
ag3
ag3
aa(lp183
g3
ag3
ag3
ag3
aa(lp184
g3
ag26
ag3
ag3
aa(lp185
g3
ag3
ag3
ag3
aa(lp186
g3
ag3
ag21
ag3
aa(lp187
g3
ag3
ag3
ag3
aa(lp188
g3
ag3
ag3
ag26
aa(lp189
g3
ag3
ag3
ag3
aaa(lp190
(lp191
g3
ag3
ag3
ag3
aa(lp192
g3
ag3
ag3
ag21
aa(lp193
g3
ag3
ag3
ag3
aa(lp194
g3
ag33
ag5
ag21
aa(lp195
g3
ag3
ag3
ag3
aa(lp196
g26
ag33
ag5
ag33
aa(lp197
g3
ag3
ag3
ag3
aa(lp198
g104
ag118
ag5
ag26
aa(lp199
g3
ag3
ag3
ag3
aaa(lp200
(lp201
g3
ag3
ag3
ag3
aa(lp202
g117
ag5
ag5
ag5
aa(lp203
g3
ag3
ag3
ag3
aa(lp204
g26
ag3
ag3
ag3
aa(lp205
g3
ag3
ag3
ag3
aa(lp206
g104
ag3
ag3
ag3
aa(lp207
g3
ag3
ag3
ag3
aaa(lp208
(lp209
g3
ag3
ag3
ag3
aa(lp210
g117
aS'6'
p211
ag104
ag211
aa(lp212
g3
ag3
ag3
ag3
aa(lp213
g3
ag3
ag3
ag3
aa(lp214
g3
ag3
ag3
ag3
aa(lp215
S'8'
p216
ag117
ag104
ag211
aa(lp217
g3
ag3
ag3
ag3
aa(lp218
g3
ag3
ag3
ag3
aa(lp219
g3
ag3
ag3
ag3
aaa(lp220
(lp221
g3
ag3
ag3
ag3
aa(lp222
g104
ag33
ag5
ag5
aa(lp223
g3
ag3
ag3
ag3
aa(lp224
g21
ag3
ag3
ag3
aa(lp225
g3
ag3
ag3
ag3
aa(lp226
g26
ag3
ag3
ag3
aa(lp227
g3
ag3
ag3
ag3
aaa(lp228
(lp229
g3
ag3
ag3
ag3
aa(lp230
g104
ag33
ag21
ag5
aa(lp231
g3
ag3
ag3
ag3
aa(lp232
g3
ag3
ag3
ag3
aa(lp233
g3
ag3
ag3
ag3
aa(lp234
g117
ag118
ag104
ag118
aa(lp235
g3
ag3
ag3
ag3
aa(lp236
g3
ag3
ag3
ag3
aa(lp237
g3
ag3
ag3
ag3
aaa(lp238
(lp239
g3
ag3
ag3
ag3
aag124
a(lp240
g3
ag3
ag3
ag3
aa(lp241
g26
ag33
ag5
ag5
aa(lp242
g3
ag3
ag3
ag3
aag124
a(lp243
g3
ag3
ag3
ag3
aa(lp244
g3
ag3
ag3
ag3
aa(lp245
g3
ag3
ag3
ag3
aa(lp246
g3
ag26
ag3
ag3
aa(lp247
g3
ag3
ag3
ag3
aaa(lp248
(lp249
g3
ag3
ag3
ag3
aa(lp250
g3
ag5
ag5
ag5
aa(lp251
g3
ag3
ag3
ag3
aa(lp252
g3
ag26
ag3
ag3
aa(lp253
g3
ag3
ag3
ag3
aa(lp254
g3
ag5
ag5
ag33
aa(lp255
g3
ag3
ag3
ag3
aa(lp256
g3
ag26
ag3
ag3
aa(lp257
g3
ag3
ag3
ag3
aaa(lp258
(lp259
g3
ag3
ag3
ag3
aa(lp260
g3
ag5
ag5
ag21
aa(lp261
g3
ag3
ag3
ag3
aa(lp262
g3
ag26
ag3
ag3
aa(lp263
g3
ag3
ag3
ag3
aa(lp264
g3
ag5
ag5
ag33
aa(lp265
g3
ag3
ag3
ag3
aa(lp266
g3
ag26
ag3
ag3
aa(lp267
g3
ag3
ag3
ag3
aaa(lp268
(lp269
g3
ag3
ag3
ag3
aa(lp270
g3
ag33
ag5
ag21
aa(lp271
g3
ag3
ag3
ag3
aa(lp272
g3
ag26
ag3
ag3
aa(lp273
g3
ag3
ag3
ag3
aa(lp274
g3
ag33
ag5
ag33
aa(lp275
g3
ag3
ag3
ag3
aa(lp276
g3
ag26
ag3
ag3
aa(lp277
g3
ag3
ag3
ag3
aaa(lp278
(lp279
g3
ag3
ag3
ag3
aa(lp280
g3
ag33
ag21
ag5
aa(lp281
g3
ag3
ag3
ag3
aa(lp282
g3
ag26
ag3
ag3
aa(lp283
g3
ag3
ag3
ag3
aa(lp284
g3
ag33
ag26
ag5
aa(lp285
g3
ag3
ag3
ag3
aa(lp286
g3
ag26
ag3
ag3
aa(lp287
g3
ag3
ag3
ag3
aaa(lp288
(lp289
g3
ag3
ag3
ag3
aa(lp290
g5
ag5
ag5
ag5
aa(lp291
g3
ag3
ag3
ag3
aa(lp292
g5
ag5
ag5
ag5
aa(lp293
g3
ag3
ag3
ag3
aa(lp294
g5
ag5
ag33
ag5
aa(lp295
g3
ag3
ag3
ag3
aa(lp296
g5
ag5
ag33
ag5
aa(lp297
g3
ag3
ag3
ag3
aaa(lp298
(lp299
g3
ag3
ag3
ag3
aa(lp300
g5
ag33
ag21
ag21
aa(lp301
g3
ag3
ag3
ag3
aag300
a(lp302
g3
ag3
ag3
ag3
aa(lp303
g5
ag26
ag118
ag118
aa(lp304
g3
ag3
ag3
ag3
aa(lp305
g3
ag3
ag3
ag3
aa(lp306
g3
ag26
ag3
ag3
aa(lp307
g3
ag3
ag3
ag3
aaa(lp308
(lp309
g3
ag3
ag3
ag3
aa(lp310
g3
ag5
ag5
ag5
aa(lp311
g3
ag3
ag3
ag3
aa(lp312
g3
ag26
ag3
ag3
aa(lp313
g3
ag3
ag3
ag3
aa(lp314
g3
ag5
ag3
ag3
aa(lp315
g3
ag3
ag3
ag3
aa(lp316
g3
ag26
ag3
ag3
aa(lp317
g3
ag3
ag3
ag3
aaa(lp318
(lp319
g3
ag3
ag3
ag3
aa(lp320
g3
ag5
ag5
ag26
aa(lp321
g3
ag3
ag3
ag3
aa(lp322
g3
ag26
ag3
ag3
aa(lp323
g3
ag3
ag3
ag3
aa(lp324
g3
ag5
ag3
ag3
aa(lp325
g3
ag3
ag3
ag3
aa(lp326
g3
ag26
ag3
ag3
aa(lp327
g3
ag3
ag3
ag3
aaa(lp328
(lp329
g3
ag3
ag3
ag3
aa(lp330
g3
ag21
ag5
ag21
aa(lp331
g3
ag3
ag3
ag3
aa(lp332
g5
ag3
ag3
ag3
aa(lp333
g3
ag3
ag3
ag3
aa(lp334
g3
ag21
ag3
ag3
aa(lp335
g3
ag3
ag3
ag3
aa(lp336
g5
ag3
ag3
ag3
aa(lp337
g3
ag3
ag3
ag3
aaa(lp338
(lp339
g3
ag3
ag3
ag3
aa(lp340
g3
ag21
ag26
ag118
aa(lp341
g3
ag3
ag3
ag3
aa(lp342
g5
ag3
ag3
ag3
aa(lp343
g3
ag3
ag3
ag3
aa(lp344
g3
ag21
ag3
ag3
aa(lp345
g3
ag3
ag3
ag3
aa(lp346
g5
ag3
ag3
ag3
aa(lp347
g3
ag3
ag3
ag3
aaa(lp348
(lp349
g3
ag3
ag3
ag3
aa(lp350
g21
ag5
ag5
ag21
aa(lp351
g3
ag3
ag3
ag3
aa(lp352
g21
ag5
ag5
ag21
aa(lp353
g3
ag3
ag3
ag3
aa(lp354
g21
ag5
ag5
ag33
aa(lp355
g3
ag3
ag3
ag3
aa(lp356
g21
ag5
ag5
ag33
aa(lp357
g3
ag3
ag3
ag3
aaa(lp358
(lp359
g3
ag3
ag3
ag3
aa(lp360
g104
ag118
ag118
ag26
aa(lp361
g3
ag3
ag3
ag3
aa(lp362
g104
ag118
ag118
ag26
aa(lp363
g3
ag3
ag3
ag3
aa(lp364
g9
ag13
ag13
aS'4'
p365
aa(lp366
g3
ag3
ag3
ag3
aa(lp367
g3
ag3
ag3
ag3
aa(lp368
g3
ag3
ag3
ag3
aaa(lp369
(lp370
g3
ag3
ag3
ag3
aa(lp371
g3
ag3
ag5
ag3
aa(lp372
g3
ag3
ag3
ag3
aa(lp373
g9
ag10
ag9
ag10
aa(lp374
g3
ag3
ag3
ag3
aa(lp375
g13
ag10
ag13
ag10
aa(lp376
g3
ag3
ag3
ag3
aa(lp377
g3
ag3
ag3
ag3
aa(lp378
g3
ag3
ag3
ag3
aa(lp379
g3
ag3
ag3
ag3
aaa(lp380
(lp381
g3
ag3
ag3
ag3
aa(lp382
g21
ag5
ag21
ag5
aa(lp383
g3
ag3
ag3
ag3
aa(lp384
g3
ag3
ag3
ag3
aa(lp385
g3
ag3
ag3
ag3
aa(lp386
g3
ag26
ag3
ag3
aa(lp387
g3
ag3
ag3
ag3
aa(lp388
g5
ag3
ag3
ag3
aa(lp389
g3
ag3
ag3
ag3
aaa(lp390
(lp391
g3
ag3
ag3
ag3
aa(lp392
g21
ag5
ag5
ag33
aa(lp393
g3
ag3
ag3
ag3
aa(lp394
g3
ag3
ag3
ag3
aa(lp395
g3
ag3
ag3
ag3
aa(lp396
g26
ag5
ag5
ag21
aa(lp397
g3
ag3
ag3
ag3
aa(lp398
g3
ag3
ag3
ag3
aa(lp399
g3
ag3
ag3
ag3
aaa(lp400
(lp401
g3
ag3
ag3
ag3
aa(lp402
g3
ag3
ag5
ag3
aa(lp403
g3
ag3
ag3
ag3
aa(lp404
g5
ag33
ag5
ag21
aa(lp405
g3
ag3
ag3
ag3
aa(lp406
g21
ag33
ag33
ag5
aa(lp407
g3
ag3
ag3
ag3
aa(lp408
g21
ag33
ag33
ag5
aa(lp409
g3
ag3
ag3
ag3
aaa(lp410
(lp411
g3
ag3
ag3
ag3
aa(lp412
g3
ag26
ag21
ag26
aa(lp413
g3
ag3
ag3
ag3
aa(lp414
g3
ag3
ag3
ag26
aa(lp415
g3
ag3
ag3
ag3
aa(lp416
g3
ag3
ag21
ag3
aa(lp417
g3
ag3
ag3
ag3
aa(lp418
g3
ag26
ag3
ag3
aa(lp419
g3
ag3
ag3
ag3
aa(lp420
g5
ag3
ag3
ag3
aa(lp421
g3
ag3
ag3
ag3
aa(lp422
g3
ag26
ag3
ag3
aa(lp423
g3
ag3
ag3
ag3
aa(lp424
g3
ag3
ag21
ag3
aa(lp425
g3
ag3
ag3
ag3
aa(lp426
g3
ag3
ag3
ag26
aa(lp427
g3
ag3
ag3
ag3
aaa(lp428
(lp429
g3
ag3
ag3
ag3
aa(lp430
g3
ag3
ag3
ag21
aa(lp431
g3
ag3
ag3
ag3
aa(lp432
g3
ag33
ag5
ag21
aa(lp433
g3
ag3
ag3
ag3
aa(lp434
g26
ag33
ag5
ag33
aa(lp435
g3
ag3
ag3
ag3
aa(lp436
g104
ag118
ag5
ag26
aa(lp437
g3
ag3
ag3
ag3
aaa(lp438
(lp439
g3
ag3
ag3
ag3
aa(lp440
g117
ag5
ag5
ag5
aa(lp441
g3
ag3
ag3
ag3
aa(lp442
g26
ag3
ag3
ag3
aa(lp443
g3
ag3
ag3
ag3
aa(lp444
g104
ag3
ag3
ag3
aa(lp445
g3
ag3
ag3
ag3
aaa(lp446
(lp447
g3
ag3
ag3
ag3
aa(lp448
g117
ag211
ag104
ag211
aa(lp449
g3
ag3
ag3
ag3
aa(lp450
g3
ag3
ag3
ag3
aa(lp451
g3
ag3
ag3
ag3
aa(lp452
g216
ag117
ag104
ag211
aa(lp453
g3
ag3
ag3
ag3
aa(lp454
g3
ag3
ag3
ag3
aa(lp455
g3
ag3
ag3
ag3
aaa(lp456
(lp457
g3
ag3
ag3
ag3
aa(lp458
g104
ag33
ag5
ag5
aa(lp459
g3
ag3
ag3
ag3
aa(lp460
g21
ag3
ag3
ag3
aa(lp461
g3
ag3
ag3
ag3
aa(lp462
g26
ag3
ag3
ag3
aa(lp463
g3
ag3
ag3
ag3
aaa(lp464
(lp465
g3
ag3
ag3
ag3
aa(lp466
g104
ag33
ag21
ag5
aa(lp467
g3
ag3
ag3
ag3
aa(lp468
g3
ag3
ag3
ag3
aa(lp469
g3
ag3
ag3
ag3
aa(lp470
g117
ag118
ag104
ag118
aa(lp471
g3
ag3
ag3
ag3
aa(lp472
g3
ag3
ag3
ag3
aa(lp473
g3
ag3
ag3
ag3
aaa(lp474
(lp475
g3
ag3
ag3
ag3
aa(lp476
g26
ag5
ag5
ag33
aa(lp477
g3
ag3
ag3
ag3
aa(lp478
g26
ag5
ag5
ag33
aa(lp479
g3
ag3
ag3
ag3
aa(lp480
g26
ag5
ag5
ag21
aa(lp481
g3
ag3
ag3
ag3
aa(lp482
g26
ag5
ag5
ag21
aa(lp483
g3
ag3
ag3
ag3
aaa(lp484
(lp485
g3
ag3
ag3
ag3
aa(lp486
g104
ag33
ag5
ag5
aa(lp487
g3
ag3
ag3
ag3
aa(lp488
g21
ag3
ag3
ag3
aa(lp489
g3
ag3
ag3
ag3
aa(lp490
g26
ag3
ag3
ag3
aa(lp491
g3
ag3
ag3
ag3
aaa(lp492
(lp493
g3
ag3
ag3
ag3
aa(lp494
g5
ag33
ag21
ag5
aa(lp495
g3
ag3
ag3
ag3
aa(lp496
g21
ag33
ag33
ag5
aa(lp497
g3
ag3
ag3
ag3
aaa(lp498
(lp499
g3
ag3
ag3
ag3
aag124
a(lp500
g3
ag3
ag3
ag3
aa(lp501
g3
ag3
ag3
ag3
aa(lp502
g3
ag3
ag3
ag3
aa(lp503
g3
ag3
ag3
ag3
aa(lp504
g3
ag26
ag3
ag3
aa(lp505
g3
ag3
ag3
ag3
aaa(lp506
(lp507
g3
ag3
ag3
ag3
aa(lp508
g117
ag117
ag5
ag5
aa(lp509
g3
ag3
ag3
ag3
aa(lp510
g3
ag3
ag3
ag3
aa(lp511
g3
ag3
ag3
ag3
aa(lp512
g3
ag3
ag3
ag3
aaa.