(lp0
(lp1
(lp2
S'-'
p3
ag3
ag3
ag3
aa(lp4
g3
aS'0'
p5
ag5
ag5
aa(lp6
g3
ag3
ag3
ag3
aa(lp7
g3
ag3
ag5
ag3
aa(lp8
g3
ag3
ag3
ag3
aa(lp9
S'7'
p10
ag3
ag3
ag3
aa(lp11
g3
ag3
ag3
ag3
aa(lp12
g3
ag3
ag10
ag3
aa(lp13
g3
ag3
ag3
ag3
aa(lp14
g10
ag3
ag3
ag3
aa(lp15
g3
ag3
ag3
ag3
aa(lp16
g3
ag3
ag10
ag3
aa(lp17
g3
ag3
ag3
ag3
aaa(lp18
(lp19
g3
ag3
ag3
ag3
aa(lp20
g3
aS'5'
p21
ag21
ag21
aa(lp22
g3
ag3
ag3
ag3
aa(lp23
g3
ag3
ag3
ag21
aa(lp24
g3
ag3
ag3
ag3
aa(lp25
S'8'
p26
ag3
ag3
ag3
aa(lp27
g3
ag3
ag3
ag3
aa(lp28
g3
ag3
ag3
ag3
aaa(lp29
(lp30
g3
ag3
ag3
ag3
aa(lp31
g3
ag5
ag5
ag5
aa(lp32
g3
ag3
ag3
ag3
aa(lp33
g3
ag3
ag5
ag3
aa(lp34
g3
ag3
ag3
ag3
aa(lp35
g10
ag3
ag3
ag3
aa(lp36
g3
ag3
ag3
ag3
aa(lp37
g3
ag3
ag10
ag3
aa(lp38
g3
ag3
ag3
ag3
aa(lp39
g10
ag3
ag3
ag3
aa(lp40
g3
ag3
ag3
ag3
aa(lp41
g3
ag3
ag10
ag3
aa(lp42
g3
ag3
ag3
ag3
aaa(lp43
(lp44
g3
ag3
ag3
ag3
aa(lp45
g3
ag21
ag21
ag21
aa(lp46
g3
ag3
ag3
ag3
aa(lp47
g3
ag3
ag3
ag21
aa(lp48
g3
ag3
ag3
ag3
aa(lp49
g26
ag3
ag3
ag3
aa(lp50
g3
ag3
ag3
ag3
aa(lp51
g3
ag3
ag3
ag3
aaa(lp52
(lp53
S'-'
p54
ag54
ag54
ag54
aa(lp55
g54
aS'0'
p56
ag56
ag56
aa(lp57
g54
ag54
ag54
ag54
aa(lp58
g54
aS'3'
p59
ag54
ag54
aa(lp60
g54
ag54
ag54
ag54
aa(lp61
g59
ag54
ag54
ag54
aa(lp62
g54
ag54
ag54
ag54
aaa(lp63
(lp64
g54
ag54
ag54
ag54
aa(lp65
S'5'
p66
aS'4'
p67
ag66
ag66
aa(lp68
g54
ag54
ag54
ag54
aa(lp69
S'7'
p70
ag54
ag54
ag54
aa(lp71
g54
ag54
ag54
ag54
aa(lp72
g70
ag54
ag54
ag54
aa(lp73
g54
ag54
ag54
ag54
aa(lp74
g54
ag54
ag54
ag54
aaa(lp75
(lp76
g54
ag54
ag54
ag54
aa(lp77
g54
aS'1'
p78
aS'2'
p79
ag54
aa(lp80
g54
ag54
ag54
ag54
aa(lp81
g54
ag59
ag54
ag54
aa(lp82
g54
ag54
ag54
ag54
aa(lp83
g59
ag54
ag54
ag54
aa(lp84
g54
ag54
ag54
ag54
aaa(lp85
(lp86
g54
ag54
ag54
ag54
aa(lp87
g59
ag59
ag79
ag56
aa(lp88
g54
ag54
ag54
ag54
aa(lp89
g66
ag54
ag54
ag54
aa(lp90
g54
ag54
ag54
ag54
aa(lp91
g54
ag54
ag54
ag54
aa(lp92
g54
ag59
ag54
ag54
aa(lp93
g54
ag54
ag54
ag54
aaa(lp94
(lp95
g54
ag54
ag54
ag54
aa(lp96
g54
ag56
ag56
ag56
aa(lp97
g54
ag54
ag54
ag54
aa(lp98
g54
ag59
ag54
ag54
aa(lp99
g54
ag54
ag54
ag54
aa(lp100
g79
ag54
ag54
ag54
aa(lp101
g54
ag54
ag54
ag54
aaa(lp102
(lp103
g54
ag54
ag54
ag54
aa(lp104
g59
ag59
ag56
ag56
aa(lp105
g54
ag54
ag54
ag54
aa(lp106
g54
ag54
ag54
ag54
aa(lp107
g54
ag59
ag54
ag54
aa(lp108
g54
ag54
ag54
ag54
aaa(lp109
(lp110
g54
ag54
ag54
ag54
aa(lp111
g56
ag78
ag79
ag56
aa(lp112
g54
ag54
ag54
ag54
aa(lp113
g54
ag78
ag79
ag54
aa(lp114
g54
ag54
ag54
ag54
aa(lp115
g54
ag78
ag79
ag54
aa(lp116
g54
ag54
ag54
ag54
aaa(lp117
(lp118
g54
ag54
ag54
ag54
aa(lp119
g79
ag78
ag79
ag56
aa(lp120
g54
ag54
ag54
ag54
aa(lp121
g54
ag78
ag79
ag54
aa(lp122
g54
ag54
ag54
ag54
aa(lp123
g54
ag78
ag79
ag54
aa(lp124
g54
ag54
ag54
ag54
aaa(lp125
(lp126
g54
ag54
ag54
ag54
aa(lp127
g54
ag56
ag56
ag56
aa(lp128
g54
ag54
ag54
ag54
aa(lp129
g54
ag59
ag54
ag54
aa(lp130
g54
ag54
ag54
ag54
aa(lp131
g59
ag54
ag54
ag54
aa(lp132
g54
ag54
ag54
ag54
aaa(lp133
(lp134
g54
ag54
ag54
ag54
aa(lp135
g66
ag67
ag66
ag66
aa(lp136
g54
ag54
ag54
ag54
aa(lp137
g70
ag54
ag54
ag54
aa(lp138
g54
ag54
ag54
ag54
aa(lp139
g70
ag54
ag54
ag54
aa(lp140
g54
ag54
ag54
ag54
aa(lp141
g54
ag54
ag54
ag54
aaa(lp142
(lp143
g54
ag54
ag54
ag54
aa(lp144
g54
ag78
ag79
ag54
aa(lp145
g54
ag54
ag54
ag54
aa(lp146
g54
ag59
ag54
ag54
aa(lp147
g54
ag54
ag54
ag54
aa(lp148
g59
ag54
ag54
ag54
aa(lp149
g54
ag54
ag54
ag54
aaa(lp150
(lp151
g54
ag54
ag54
ag54
aa(lp152
g59
ag59
ag79
ag56
aa(lp153
g54
ag54
ag54
ag54
aa(lp154
g66
ag54
ag54
ag54
aa(lp155
g54
ag54
ag54
ag54
aa(lp156
g54
ag54
ag54
ag54
aa(lp157
g54
ag59
ag54
ag54
aa(lp158
g54
ag54
ag54
ag54
aaa(lp159
(lp160
g54
ag54
ag54
ag54
aa(lp161
g54
ag56
ag56
ag56
aa(lp162
g54
ag54
ag54
ag54
aa(lp163
g54
ag59
ag54
ag54
aa(lp164
g54
ag54
ag54
ag54
aa(lp165
g79
ag54
ag54
ag54
aa(lp166
g54
ag54
ag54
ag54
aaa(lp167
(lp168
g54
ag54
ag54
ag54
aa(lp169
g79
ag59
ag56
ag56
aa(lp170
g54
ag54
ag54
ag54
aa(lp171
g59
ag54
ag54
ag54
aa(lp172
g54
ag54
ag54
ag54
aa(lp173
g54
ag54
ag54
ag54
aa(lp174
g54
ag59
ag54
ag54
aa(lp175
g54
ag54
ag54
ag54
aaa(lp176
(lp177
g54
ag54
ag54
ag54
aa(lp178
g56
ag78
ag79
ag56
aa(lp179
g54
ag54
ag54
ag54
aa(lp180
g54
ag78
ag79
ag54
aa(lp181
g54
ag54
ag54
ag54
aa(lp182
g54
ag78
ag79
ag54
aa(lp183
g54
ag54
ag54
ag54
aaa(lp184
(lp185
g54
ag54
ag54
ag54
aa(lp186
g79
ag78
ag79
ag56
aa(lp187
g54
ag54
ag54
ag54
aa(lp188
g54
ag78
ag79
ag54
aa(lp189
g54
ag54
ag54
ag54
aa(lp190
g54
ag78
ag79
ag54
aa(lp191
g54
ag54
ag54
ag54
aaa(lp192
(lp193
g54
ag54
ag54
ag54
aa(lp194
g54
ag66
ag66
ag66
aa(lp195
g54
ag54
ag54
ag54
aa(lp196
g70
ag54
ag54
ag54
aa(lp197
g54
ag54
ag54
ag54
aa(lp198
g54
ag66
ag54
ag54
aa(lp199
g54
ag54
ag54
ag54
aaa(lp200
(lp201
g54
ag54
ag54
ag54
aa(lp202
g70
ag66
ag66
ag66
aa(lp203
g54
ag54
ag54
ag54
aa(lp204
g54
ag66
ag54
ag54
aa(lp205
g54
ag54
ag54
ag54
aa(lp206
g70
ag54
ag54
ag54
aa(lp207
g54
ag54
ag54
ag54
aaa(lp208
(lp209
g54
ag54
ag54
ag54
aa(lp210
g54
ag66
ag66
ag66
aa(lp211
g54
ag54
ag54
ag54
aa(lp212
g70
ag54
ag54
ag54
aa(lp213
g54
ag54
ag54
ag54
aa(lp214
g54
ag66
ag54
ag54
aa(lp215
g54
ag54
ag54
ag54
aaa(lp216
(lp217
g54
ag54
ag54
ag54
aa(lp218
g70
ag66
ag66
ag66
aa(lp219
g54
ag54
ag54
ag54
aa(lp220
g54
ag66
ag54
ag54
aa(lp221
g54
ag54
ag54
ag54
aa(lp222
g54
ag54
ag54
ag54
aa(lp223
g54
ag54
ag54
ag54
aaa(lp224
(lp225
g54
ag54
ag54
ag54
aa(lp226
g79
ag59
ag67
ag56
aa(lp227
g54
ag54
ag54
ag54
aa(lp228
g79
ag54
ag54
ag54
aa(lp229
g54
ag54
ag54
ag54
aa(lp230
g59
ag54
ag54
ag54
aa(lp231
g54
ag54
ag54
ag54
aaa(lp232
(lp233
g54
ag54
ag54
ag54
aa(lp234
g66
ag59
ag67
ag56
aa(lp235
g54
ag54
ag54
ag54
aa(lp236
g79
ag54
ag54
ag54
aa(lp237
g54
ag54
ag54
ag54
aa(lp238
g54
ag59
ag54
ag54
aa(lp239
g54
ag54
ag54
ag54
aaa(lp240
(lp241
g54
ag54
ag54
ag54
aa(lp242
g79
ag59
ag67
ag56
aa(lp243
g54
ag54
ag54
ag54
aa(lp244
g54
ag59
ag67
ag54
aa(lp245
g54
ag54
ag54
ag54
aa(lp246
g54
ag59
ag67
ag54
aa(lp247
g54
ag54
ag54
ag54
aaa(lp248
(lp249
g54
ag54
ag54
ag54
aa(lp250
g79
ag59
ag67
ag56
aa(lp251
g54
ag54
ag54
ag54
aa(lp252
g54
ag59
ag67
ag54
aa(lp253
g54
ag54
ag54
ag54
aa(lp254
g54
ag59
ag67
ag54
aa(lp255
g54
ag54
ag54
ag54
aaa(lp256
(lp257
g54
ag54
ag54
ag54
aa(lp258
g56
ag78
ag79
ag79
aa(lp259
g54
ag54
ag54
ag54
aa(lp260
g56
ag54
ag54
ag54
aa(lp261
g54
ag54
ag54
ag54
aa(lp262
g59
ag54
ag54
ag54
aa(lp263
g54
ag54
ag54
ag54
aaa(lp264
(lp265
g54
ag54
ag54
ag54
aa(lp266
S'2'
p267
aS'1'
p268
ag267
aS'0'
p269
aa(lp270
S'-'
p271
ag271
ag271
ag271
aa(lp272
S'3'
p273
ag271
ag271
ag271
aa(lp274
g271
ag271
ag271
ag271
aa(lp275
g271
ag271
ag271
ag271
aa(lp276
g269
ag271
ag271
ag271
aa(lp277
g271
ag271
ag271
ag271
aaa(lp278
(lp279
g271
ag271
ag271
ag271
aa(lp280
g271
ag273
aS'4'
p281
ag269
aa(lp282
g271
ag271
ag271
ag271
aa(lp283
g267
ag271
ag271
ag271
aa(lp284
g271
ag271
ag271
ag271
aa(lp285
S'5'
p286
ag271
ag271
ag271
aa(lp287
g271
ag271
ag271
ag271
aaa(lp288
(lp289
g271
ag271
ag271
ag271
aa(lp290
g267
ag269
ag268
ag267
aa(lp291
g271
ag271
ag271
ag271
aa(lp292
g281
ag271
ag271
ag271
aa(lp293
g271
ag271
ag271
ag271
aa(lp294
g271
ag271
ag271
ag271
aa(lp295
g271
ag269
ag271
ag271
aa(lp296
g271
ag271
ag271
ag271
aaa(lp297
(lp298
g271
ag271
ag271
ag271
aa(lp299
g271
ag268
ag269
ag267
aa(lp300
g271
ag271
ag271
ag271
aa(lp301
g269
ag271
ag271
ag271
aa(lp302
g271
ag271
ag271
ag271
aa(lp303
g271
ag271
ag271
ag271
aa(lp304
g273
ag271
ag271
ag271
aa(lp305
g271
ag271
ag271
ag271
aaa(lp306
(lp307
g271
ag271
ag271
ag271
aa(lp308
S'7'
p309
ag309
ag286
ag309
aa(lp310
g271
ag271
ag271
ag271
aa(lp311
g309
ag271
ag271
ag271
aa(lp312
g271
ag271
ag271
ag271
aa(lp313
g271
ag271
ag271
ag271
aa(lp314
g286
ag271
ag271
ag271
aa(lp315
g271
ag271
ag271
ag271
aaa(lp316
(lp317
g271
ag271
ag271
ag271
aa(lp318
g273
ag269
ag269
ag269
aa(lp319
g271
ag271
ag271
ag271
aa(lp320
g271
ag271
ag271
ag271
aa(lp321
g271
ag271
ag271
ag271
aa(lp322
g271
ag271
ag271
ag271
aa(lp323
g271
ag271
ag271
ag271
aaa.