(lp0
(lp1
(lp2
S'-'
p3
ag3
ag3
ag3
aa(lp4
g3
aS'0'
p5
ag5
ag5
aa(lp6
g3
ag3
ag3
ag3
aa(lp7
g3
ag3
ag5
ag3
aa(lp8
g3
ag3
ag3
ag3
aa(lp9
S'7'
p10
ag3
ag3
ag3
aa(lp11
g3
ag3
ag3
ag3
aa(lp12
g3
ag3
ag10
ag3
aa(lp13
g3
ag3
ag3
ag3
aa(lp14
g10
ag3
ag3
ag3
aa(lp15
g3
ag3
ag3
ag3
aa(lp16
g3
ag3
ag10
ag3
aa(lp17
g3
ag3
ag3
ag3
aaa(lp18
(lp19
g3
ag3
ag3
ag3
aa(lp20
g3
aS'5'
p21
ag21
ag21
aa(lp22
g3
ag3
ag3
ag3
aa(lp23
g3
ag3
ag3
ag21
aa(lp24
g3
ag3
ag3
ag3
aa(lp25
S'8'
p26
ag3
ag3
ag3
aa(lp27
g3
ag3
ag3
ag3
aa(lp28
g3
ag3
ag3
ag3
aaa(lp29
(lp30
g3
ag3
ag3
ag3
aa(lp31
g3
ag5
ag5
ag5
aa(lp32
g3
ag3
ag3
ag3
aa(lp33
g3
ag3
ag5
ag3
aa(lp34
g3
ag3
ag3
ag3
aa(lp35
g10
ag3
ag3
ag3
aa(lp36
g3
ag3
ag3
ag3
aa(lp37
g3
ag3
ag10
ag3
aa(lp38
g3
ag3
ag3
ag3
aa(lp39
g10
ag3
ag3
ag3
aa(lp40
g3
ag3
ag3
ag3
aa(lp41
g3
ag3
ag10
ag3
aa(lp42
g3
ag3
ag3
ag3
aaa(lp43
(lp44
g3
ag3
ag3
ag3
aa(lp45
g3
ag21
ag21
ag21
aa(lp46
g3
ag3
ag3
ag3
aa(lp47
g3
ag3
ag3
ag21
aa(lp48
g3
ag3
ag3
ag3
aa(lp49
g26
ag3
ag3
ag3
aa(lp50
g3
ag3
ag3
ag3
aa(lp51
g3
ag3
ag3
ag3
aaa(lp52
(lp53
S'-'
p54
ag54
ag54
ag54
aa(lp55
g54
aS'0'
p56
ag56
ag56
aa(lp57
g54
ag54
ag54
ag54
aa(lp58
g54
aS'3'
p59
ag54
ag54
aa(lp60
g54
ag54
ag54
ag54
aa(lp61
g59
ag54
ag54
ag54
aa(lp62
g54
ag54
ag54
ag54
aaa(lp63
(lp64
g54
ag54
ag54
ag54
aa(lp65
S'5'
p66
ag66
aS'4'
p67
ag66
aa(lp68
g54
ag54
ag54
ag54
aa(lp69
S'7'
p70
ag54
ag54
ag54
aa(lp71
g54
ag54
ag54
ag54
aa(lp72
g70
ag54
ag54
ag54
aa(lp73
g54
ag54
ag54
ag54
aa(lp74
g54
ag54
ag54
ag54
aaa(lp75
(lp76
g54
ag54
ag54
ag54
aa(lp77
g54
aS'1'
p78
aS'2'
p79
ag54
aa(lp80
g54
ag54
ag54
ag54
aa(lp81
g54
ag59
ag54
ag54
aa(lp82
g54
ag54
ag54
ag54
aa(lp83
g59
ag54
ag54
ag54
aa(lp84
g54
ag54
ag54
ag54
aaa(lp85
(lp86
g54
ag54
ag54
ag54
aa(lp87
g59
ag59
ag79
ag56
aa(lp88
g54
ag54
ag54
ag54
aa(lp89
S'5'
p90
ag54
ag54
ag54
aa(lp91
g54
ag54
ag54
ag54
aa(lp92
g54
ag54
ag54
ag54
aa(lp93
g54
ag59
ag54
ag54
aa(lp94
g54
ag54
ag54
ag54
aaa(lp95
(lp96
g54
ag54
ag54
ag54
aa(lp97
g54
ag56
ag56
ag56
aa(lp98
g54
ag54
ag54
ag54
aa(lp99
g54
ag59
ag54
ag54
aa(lp100
g54
ag54
ag54
ag54
aa(lp101
g79
ag54
ag54
ag54
aa(lp102
g54
ag54
ag54
ag54
aaa(lp103
(lp104
g54
ag54
ag54
ag54
aa(lp105
g59
ag59
ag56
ag56
aa(lp106
g54
ag54
ag54
ag54
aa(lp107
g54
ag54
ag54
ag54
aa(lp108
g54
ag59
ag54
ag54
aa(lp109
g54
ag54
ag54
ag54
aaa(lp110
(lp111
g54
ag54
ag54
ag54
aa(lp112
g56
ag78
ag79
ag56
aa(lp113
g54
ag54
ag54
ag54
aa(lp114
g54
ag78
ag79
ag54
aa(lp115
g54
ag54
ag54
ag54
aa(lp116
g54
ag78
ag79
ag54
aa(lp117
g54
ag54
ag54
ag54
aaa(lp118
(lp119
g54
ag54
ag54
ag54
aa(lp120
g79
ag78
ag79
ag56
aa(lp121
g54
ag54
ag54
ag54
aa(lp122
g54
ag78
ag79
ag54
aa(lp123
g54
ag54
ag54
ag54
aa(lp124
g54
ag78
ag79
ag54
aa(lp125
g54
ag54
ag54
ag54
aaa(lp126
(lp127
g54
ag54
ag54
ag54
aa(lp128
g54
ag56
ag56
ag56
aa(lp129
g54
ag54
ag54
ag54
aa(lp130
g54
ag59
ag54
ag54
aa(lp131
g54
ag54
ag54
ag54
aa(lp132
g59
ag54
ag54
ag54
aa(lp133
g54
ag54
ag54
ag54
aaa(lp134
(lp135
g54
ag54
ag54
ag54
aa(lp136
g66
ag66
ag67
ag66
aa(lp137
g54
ag54
ag54
ag54
aa(lp138
g70
ag54
ag54
ag54
aa(lp139
g54
ag54
ag54
ag54
aa(lp140
g70
ag54
ag54
ag54
aa(lp141
g54
ag54
ag54
ag54
aa(lp142
g54
ag54
ag54
ag54
aaa(lp143
(lp144
g54
ag54
ag54
ag54
aa(lp145
g54
ag78
ag79
ag54
aa(lp146
g54
ag54
ag54
ag54
aa(lp147
g54
ag59
ag54
ag54
aa(lp148
g54
ag54
ag54
ag54
aa(lp149
g59
ag54
ag54
ag54
aa(lp150
g54
ag54
ag54
ag54
aaa(lp151
(lp152
g54
ag54
ag54
ag54
aa(lp153
g59
ag59
ag79
ag56
aa(lp154
g54
ag54
ag54
ag54
aa(lp155
g90
ag54
ag54
ag54
aa(lp156
g54
ag54
ag54
ag54
aa(lp157
g54
ag54
ag54
ag54
aa(lp158
g54
ag59
ag54
ag54
aa(lp159
g54
ag54
ag54
ag54
aaa(lp160
(lp161
g54
ag54
ag54
ag54
aa(lp162
g54
ag56
ag56
ag56
aa(lp163
g54
ag54
ag54
ag54
aa(lp164
g54
ag59
ag54
ag54
aa(lp165
g54
ag54
ag54
ag54
aa(lp166
g79
ag54
ag54
ag54
aa(lp167
g54
ag54
ag54
ag54
aaa(lp168
(lp169
g54
ag54
ag54
ag54
aa(lp170
g79
ag59
ag56
ag56
aa(lp171
g54
ag54
ag54
ag54
aa(lp172
g59
ag54
ag54
ag54
aa(lp173
g54
ag54
ag54
ag54
aa(lp174
g54
ag54
ag54
ag54
aa(lp175
g54
ag59
ag54
ag54
aa(lp176
g54
ag54
ag54
ag54
aaa(lp177
(lp178
g54
ag54
ag54
ag54
aa(lp179
g56
ag78
ag79
ag56
aa(lp180
g54
ag54
ag54
ag54
aa(lp181
g54
ag78
ag79
ag54
aa(lp182
g54
ag54
ag54
ag54
aa(lp183
g54
ag78
ag79
ag54
aa(lp184
g54
ag54
ag54
ag54
aaa(lp185
(lp186
g54
ag54
ag54
ag54
aa(lp187
g79
ag78
ag79
ag56
aa(lp188
g54
ag54
ag54
ag54
aa(lp189
g54
ag78
ag79
ag54
aa(lp190
g54
ag54
ag54
ag54
aa(lp191
g54
ag78
ag79
ag54
aa(lp192
g54
ag54
ag54
ag54
aaa(lp193
(lp194
g54
ag54
ag54
ag54
aa(lp195
g54
ag90
ag90
ag90
aa(lp196
g54
ag54
ag54
ag54
aa(lp197
g70
ag54
ag54
ag54
aa(lp198
g54
ag54
ag54
ag54
aa(lp199
g54
ag90
ag54
ag54
aa(lp200
g54
ag54
ag54
ag54
aaa(lp201
(lp202
g54
ag54
ag54
ag54
aa(lp203
g70
ag90
ag90
ag90
aa(lp204
g54
ag54
ag54
ag54
aa(lp205
g54
ag90
ag54
ag54
aa(lp206
g54
ag54
ag54
ag54
aa(lp207
g70
ag54
ag54
ag54
aa(lp208
g54
ag54
ag54
ag54
aaa(lp209
(lp210
g54
ag54
ag54
ag54
aa(lp211
g54
ag90
ag90
ag90
aa(lp212
g54
ag54
ag54
ag54
aa(lp213
g70
ag54
ag54
ag54
aa(lp214
g54
ag54
ag54
ag54
aa(lp215
g54
ag90
ag54
ag54
aa(lp216
g54
ag54
ag54
ag54
aaa(lp217
(lp218
g54
ag54
ag54
ag54
aa(lp219
g70
ag90
ag90
ag90
aa(lp220
g54
ag54
ag54
ag54
aa(lp221
g54
ag90
ag54
ag54
aa(lp222
g54
ag54
ag54
ag54
aa(lp223
g54
ag54
ag54
ag54
aa(lp224
g54
ag54
ag54
ag54
aaa(lp225
(lp226
g54
ag54
ag54
ag54
aa(lp227
g79
ag59
aS'4'
p228
ag56
aa(lp229
g54
ag54
ag54
ag54
aa(lp230
g79
ag54
ag54
ag54
aa(lp231
g54
ag54
ag54
ag54
aa(lp232
g59
ag54
ag54
ag54
aa(lp233
g54
ag54
ag54
ag54
aaa(lp234
(lp235
g54
ag54
ag54
ag54
aa(lp236
g90
ag59
ag228
ag56
aa(lp237
g54
ag54
ag54
ag54
aa(lp238
g79
ag54
ag54
ag54
aa(lp239
g54
ag54
ag54
ag54
aa(lp240
g54
ag59
ag54
ag54
aa(lp241
g54
ag54
ag54
ag54
aaa(lp242
(lp243
g54
ag54
ag54
ag54
aa(lp244
g79
ag59
ag228
ag56
aa(lp245
g54
ag54
ag54
ag54
aa(lp246
g54
ag59
ag228
ag54
aa(lp247
g54
ag54
ag54
ag54
aa(lp248
g54
ag59
ag228
ag54
aa(lp249
g54
ag54
ag54
ag54
aaa(lp250
(lp251
g54
ag54
ag54
ag54
aa(lp252
g79
ag59
ag228
ag56
aa(lp253
g54
ag54
ag54
ag54
aa(lp254
g54
ag59
ag228
ag54
aa(lp255
g54
ag54
ag54
ag54
aa(lp256
g54
ag59
ag228
ag54
aa(lp257
g54
ag54
ag54
ag54
aaa(lp258
(lp259
g54
ag54
ag54
ag54
aa(lp260
g56
ag78
ag79
ag79
aa(lp261
g54
ag54
ag54
ag54
aa(lp262
g56
ag54
ag54
ag54
aa(lp263
g54
ag54
ag54
ag54
aa(lp264
g59
ag54
ag54
ag54
aa(lp265
g54
ag54
ag54
ag54
aaa(lp266
(lp267
g54
ag54
ag54
ag54
aa(lp268
S'2'
p269
aS'1'
p270
ag269
aS'0'
p271
aa(lp272
S'-'
p273
ag273
ag273
ag273
aa(lp274
S'3'
p275
ag273
ag273
ag273
aa(lp276
g273
ag273
ag273
ag273
aa(lp277
g273
ag273
ag273
ag273
aa(lp278
g271
ag273
ag273
ag273
aa(lp279
g273
ag273
ag273
ag273
aaa(lp280
(lp281
g273
ag273
ag273
ag273
aa(lp282
g273
ag275
aS'4'
p283
ag271
aa(lp284
g273
ag273
ag273
ag273
aa(lp285
g269
ag273
ag273
ag273
aa(lp286
g273
ag273
ag273
ag273
aa(lp287
S'5'
p288
ag273
ag273
ag273
aa(lp289
g273
ag273
ag273
ag273
aaa(lp290
(lp291
g273
ag273
ag273
ag273
aa(lp292
g269
ag271
ag270
ag269
aa(lp293
g273
ag273
ag273
ag273
aa(lp294
g283
ag273
ag273
ag273
aa(lp295
g273
ag273
ag273
ag273
aa(lp296
g273
ag273
ag273
ag273
aa(lp297
g273
ag271
ag273
ag273
aa(lp298
g273
ag273
ag273
ag273
aaa(lp299
(lp300
g273
ag273
ag273
ag273
aa(lp301
g273
ag270
ag271
ag269
aa(lp302
g273
ag273
ag273
ag273
aa(lp303
g271
ag273
ag273
ag273
aa(lp304
g273
ag273
ag273
ag273
aa(lp305
g273
ag273
ag273
ag273
aa(lp306
g275
ag273
ag273
ag273
aa(lp307
g273
ag273
ag273
ag273
aaa(lp308
(lp309
g273
ag273
ag273
ag273
aa(lp310
S'7'
p311
ag311
ag288
ag311
aa(lp312
g273
ag273
ag273
ag273
aa(lp313
g311
ag273
ag273
ag273
aa(lp314
g273
ag273
ag273
ag273
aa(lp315
g273
ag273
ag273
ag273
aa(lp316
g288
ag273
ag273
ag273
aa(lp317
g273
ag273
ag273
ag273
aaa(lp318
(lp319
g273
ag273
ag273
ag273
aa(lp320
g275
ag271
ag271
ag271
aa(lp321
g273
ag273
ag273
ag273
aa(lp322
g273
ag273
ag273
ag273
aa(lp323
g273
ag273
ag273
ag273
aa(lp324
g273
ag273
ag273
ag273
aa(lp325
g273
ag273
ag273
ag273
aaa.