(lp0
(lp1
(lp2
S'-'
p3
ag3
ag3
ag3
aa(lp4
g3
aS'0'
p5
ag3
ag3
aa(lp6
g3
ag3
ag3
ag3
aaa(lp7
(lp8
g3
ag3
ag3
ag3
aa(lp9
g3
aS'1'
p10
ag3
ag3
aa(lp11
g3
ag3
ag3
ag3
aa(lp12
g3
ag3
ag3
ag5
aa(lp13
g3
ag3
ag3
ag3
aa(lp14
g3
ag10
ag3
ag3
aa(lp15
g3
ag3
ag3
ag3
aa(lp16
g3
ag5
ag3
ag3
aa(lp17
g3
ag3
ag3
ag3
aaa(lp18
(lp19
g3
ag3
ag3
ag3
aa(lp20
g3
ag10
ag3
ag3
aa(lp21
g3
ag3
ag3
ag3
aa(lp22
g3
ag3
ag3
ag5
aa(lp23
g3
ag3
ag3
ag3
aa(lp24
S'2'
p25
ag3
ag3
ag3
aa(lp26
g3
ag3
ag3
ag3
aa(lp27
S'3'
p28
ag3
ag3
ag3
aa(lp29
g3
ag3
ag3
ag3
aaa(lp30
(lp31
g3
ag3
ag3
ag3
aa(lp32
g28
ag5
ag5
ag5
aa(lp33
g3
ag3
ag3
ag3
aa(lp34
g3
ag3
ag3
ag3
aa(lp35
g3
ag3
ag3
ag3
aa(lp36
g3
ag3
ag3
ag3
aaa(lp37
(lp38
g3
ag3
ag3
ag3
aag32
a(lp39
g3
ag3
ag3
ag3
aa(lp40
g3
ag3
ag3
ag3
aa(lp41
g3
ag3
ag3
ag3
aaa(lp42
(lp43
g3
ag3
ag3
ag3
aa(lp44
g25
ag10
ag25
ag5
aa(lp45
g3
ag3
ag3
ag3
aa(lp46
g3
ag3
ag5
ag3
aa(lp47
g3
ag3
ag3
ag3
aa(lp48
g3
ag3
ag25
ag3
aa(lp49
g3
ag3
ag3
ag3
aa(lp50
g3
ag5
ag3
ag3
aa(lp51
g3
ag3
ag3
ag3
aaa(lp52
(lp53
g3
ag3
ag3
ag3
aa(lp54
g3
ag10
ag3
ag3
aa(lp55
g3
ag3
ag3
ag3
aa(lp56
g3
ag3
ag3
ag5
aa(lp57
g3
ag3
ag3
ag3
aa(lp58
g25
ag3
ag3
ag3
aa(lp59
g3
ag3
ag3
ag3
aa(lp60
g28
ag3
ag3
ag3
aa(lp61
g3
ag3
ag3
ag3
aaa(lp62
(lp63
g3
ag3
ag3
ag3
aag32
a(lp64
g3
ag3
ag3
ag3
aa(lp65
g3
ag3
ag3
ag3
aa(lp66
g3
ag3
ag3
ag3
aaa.