(lp0
(lp1
(lp2
S'-'
p3
ag3
ag3
ag3
aa(lp4
S'3'
p5
aS'1'
p6
aS'0'
p7
aS'2'
p8
aa(lp9
g3
ag3
ag3
ag3
aa(lp10
g3
ag3
ag3
ag3
aa(lp11
g3
ag3
ag3
ag3
aa(lp12
g8
ag3
ag3
ag8
aa(lp13
g3
ag3
ag3
ag3
aaa(lp14
(lp15
S'-'
p16
ag16
ag16
ag16
aa(lp17
g5
ag3
ag3
ag8
aa(lp18
g3
ag3
ag3
ag3
aa(lp19
g3
ag3
ag3
ag3
aa(lp20
g7
ag3
ag3
ag3
aa(lp21
g3
ag3
ag3
ag3
aaa(lp22
(lp23
g3
ag3
ag3
ag3
aa(lp24
g6
ag3
ag3
ag7
aa(lp25
g3
ag3
ag3
ag3
aa(lp26
g6
ag3
ag3
ag7
aa(lp27
g3
ag3
ag3
ag3
aa(lp28
g3
ag3
ag3
ag3
aa(lp29
g7
ag3
ag3
ag3
aa(lp30
g3
ag3
ag3
ag3
aa(lp31
g6
ag3
ag3
ag7
aa(lp32
g3
ag3
ag3
ag3
aa(lp33
g5
ag3
ag3
ag7
aa(lp34
g3
ag3
ag3
ag3
aaa(lp35
(lp36
g3
ag3
ag3
ag3
aa(lp37
S'0'
p38
aS'1'
p39
ag38
aS'2'
p40
aa(lp41
g3
ag3
ag3
ag3
aa(lp42
g3
ag3
ag3
ag3
aa(lp43
g3
ag3
ag3
ag3
aa(lp44
g3
ag3
ag3
ag3
aaa(lp45
(lp46
g3
ag3
ag3
ag3
aa(lp47
g5
ag6
ag7
ag8
aa(lp48
g3
ag3
ag3
ag3
aa(lp49
g3
ag3
ag3
ag3
aa(lp50
g3
ag3
ag3
ag3
aa(lp51
g8
ag3
ag3
ag8
aa(lp52
g3
ag3
ag3
ag3
aaa(lp53
(lp54
g16
ag16
ag16
ag16
aa(lp55
g5
ag3
ag3
ag8
aa(lp56
g3
ag3
ag3
ag3
aa(lp57
g3
ag3
ag3
ag3
aa(lp58
g7
ag3
ag3
ag3
aa(lp59
g3
ag3
ag3
ag3
aaa(lp60
(lp61
g3
ag3
ag3
ag3
aa(lp62
g6
ag3
ag3
ag7
aa(lp63
g3
ag3
ag3
ag3
aa(lp64
g6
ag3
ag3
ag7
aa(lp65
g3
ag3
ag3
ag3
aa(lp66
g3
ag3
ag3
ag3
aa(lp67
g7
ag3
ag3
ag3
aa(lp68
g3
ag3
ag3
ag3
aa(lp69
g6
ag3
ag3
ag7
aa(lp70
g3
ag3
ag3
ag3
aa(lp71
g5
ag3
ag3
ag3
aa(lp72
g3
ag3
ag3
ag3
aaa(lp73
(lp74
g3
ag3
ag3
ag3
aa(lp75
g7
ag6
ag7
ag8
aa(lp76
g3
ag3
ag3
ag3
aa(lp77
g3
ag3
ag3
ag3
aa(lp78
g3
ag3
ag3
ag3
aa(lp79
g3
ag3
ag3
ag3
aaa(lp80
(lp81
g3
ag3
ag3
ag3
aa(lp82
g6
ag6
ag8
ag7
aa(lp83
g3
ag3
ag3
ag3
aa(lp84
g3
ag3
ag8
ag3
aa(lp85
g3
ag3
ag3
ag3
aa(lp86
g3
ag3
ag3
ag7
aa(lp87
g3
ag3
ag3
ag3
aa(lp88
g6
ag3
ag3
ag3
aa(lp89
g3
ag3
ag3
ag3
aa(lp90
S'5'
p91
ag3
ag3
ag3
aa(lp92
g3
ag3
ag3
ag3
aaa(lp93
(lp94
g3
ag3
ag3
ag3
aag37
a(lp95
g3
ag3
ag3
ag3
aa(lp96
g3
ag3
ag7
ag3
aa(lp97
g3
ag3
ag3
ag3
aa(lp98
g3
ag6
ag3
ag3
aa(lp99
g3
ag3
ag3
ag3
aa(lp100
g3
ag3
ag3
ag8
aa(lp101
g3
ag3
ag3
ag3
aa(lp102
g5
ag3
ag3
ag3
aa(lp103
g3
ag3
ag3
ag3
aaa(lp104
(lp105
g3
ag3
ag3
ag3
aa(lp106
g39
ag38
ag38
ag38
aa(lp107
S'-'
p108
ag108
ag108
ag108
aa(lp109
g108
ag108
ag38
ag108
aa(lp110
g108
ag108
ag108
ag108
aa(lp111
g108
ag38
ag108
ag108
aa(lp112
g108
ag108
ag108
ag108
aa(lp113
g108
ag108
ag108
ag38
aa(lp114
g108
ag108
ag108
ag108
aa(lp115
g39
ag108
ag108
ag108
aa(lp116
g108
ag108
ag108
ag108
aaa(lp117
(lp118
g3
ag3
ag3
ag3
aa(lp119
g7
ag6
ag7
ag8
aa(lp120
g3
ag3
ag3
ag3
aa(lp121
g3
ag3
ag7
ag3
aa(lp122
g3
ag3
ag3
ag3
aa(lp123
g3
ag6
ag3
ag3
aa(lp124
g3
ag3
ag3
ag3
aa(lp125
g3
ag3
ag3
ag8
aa(lp126
g3
ag3
ag3
ag3
aa(lp127
g5
ag3
ag3
ag3
aa(lp128
g3
ag3
ag3
ag3
aaa(lp129
(lp130
g3
ag3
ag3
ag3
aa(lp131
g6
ag6
ag8
ag7
aa(lp132
g3
ag3
ag3
ag3
aa(lp133
g3
ag3
ag8
ag3
aa(lp134
g3
ag3
ag3
ag3
aa(lp135
g3
ag3
ag3
ag7
aa(lp136
g3
ag3
ag3
ag3
aa(lp137
g6
ag3
ag3
ag3
aa(lp138
g3
ag3
ag3
ag3
aa(lp139
g91
ag3
ag3
ag3
aa(lp140
g3
ag3
ag3
ag3
aaa(lp141
(lp142
g3
ag3
ag3
ag3
aa(lp143
g7
ag6
ag7
ag8
aa(lp144
g3
ag3
ag3
ag3
aa(lp145
g3
ag3
ag7
ag3
aa(lp146
g3
ag3
ag3
ag3
aa(lp147
g3
ag6
ag3
ag3
aa(lp148
g3
ag3
ag3
ag3
aa(lp149
g3
ag3
ag3
ag8
aa(lp150
g3
ag3
ag3
ag3
aa(lp151
g5
ag3
ag3
ag3
aa(lp152
g3
ag3
ag3
ag3
aaa(lp153
(lp154
g108
ag108
ag108
ag108
aa(lp155
g39
ag38
ag38
ag38
aa(lp156
g108
ag108
ag108
ag108
aa(lp157
g108
ag108
ag38
ag108
aa(lp158
g108
ag108
ag108
ag108
aa(lp159
g108
ag108
ag38
ag108
aa(lp160
g108
ag108
ag108
ag108
aa(lp161
g39
ag108
ag108
ag38
aa(lp162
g108
ag108
ag108
ag108
aa(lp163
g38
ag108
ag108
ag108
aa(lp164
g108
ag108
ag108
ag108
aa(lp165
g108
ag38
ag108
ag38
aa(lp166
g108
ag108
ag108
ag108
aaa(lp167
(lp168
g108
ag108
ag108
ag108
aa(lp169
g108
ag39
ag108
ag40
aa(lp170
g108
ag108
ag108
ag108
aa(lp171
g108
ag108
ag108
ag108
aa(lp172
g108
ag108
ag108
ag108
aaa(lp173
(lp174
g108
ag108
ag108
ag108
aa(lp175
g38
ag108
ag108
ag40
aa(lp176
g108
ag108
ag108
ag108
aa(lp177
S'3'
p178
ag108
ag108
ag40
aa(lp179
g108
ag108
ag108
ag108
aa(lp180
g178
ag108
ag108
ag40
aa(lp181
g108
ag108
ag108
ag108
aa(lp182
g108
ag39
ag108
ag40
aa(lp183
g108
ag108
ag108
ag108
aa(lp184
g178
ag108
ag108
ag38
aa(lp185
g108
ag108
ag108
ag108
aaa(lp186
(lp187
g16
ag16
ag16
ag16
aa(lp188
S'1'
p189
ag16
ag16
aS'0'
p190
aa(lp191
g16
ag16
ag16
ag16
aa(lp192
S'5'
p193
ag16
ag16
ag190
aa(lp194
g16
ag16
ag16
ag16
aa(lp195
g16
ag190
ag16
ag190
aa(lp196
g16
ag16
ag16
ag16
aa(lp197
g16
ag16
ag16
ag16
aa(lp198
g16
ag16
ag16
ag16
aaa(lp199
(lp200
g16
ag16
ag16
ag16
aa(lp201
g16
ag16
ag190
ag16
aa(lp202
g16
ag16
ag16
ag16
aa(lp203
g16
ag190
ag16
ag16
aa(lp204
g16
ag16
ag16
ag16
aa(lp205
g16
ag16
ag16
ag190
aa(lp206
g16
ag16
ag16
ag16
aa(lp207
g189
ag16
ag16
ag16
aa(lp208
g16
ag16
ag16
ag16
aa(lp209
g193
ag16
ag16
ag16
aa(lp210
g16
ag16
ag16
ag16
aaa(lp211
(lp212
g16
ag16
ag16
ag16
aa(lp213
S'3'
p214
ag189
ag190
aS'2'
p215
aa(lp216
g16
ag16
ag16
ag16
aa(lp217
g16
ag16
ag16
ag16
aa(lp218
g16
ag16
ag16
ag16
aa(lp219
g16
ag16
ag16
ag16
aaa(lp220
(lp221
g108
ag108
ag108
ag108
aa(lp222
g38
ag108
ag108
ag40
aa(lp223
g108
ag108
ag108
ag108
aa(lp224
g178
ag108
ag108
ag40
aa(lp225
g108
ag108
ag108
ag108
aa(lp226
g178
ag108
ag108
ag40
aa(lp227
g108
ag108
ag108
ag108
aa(lp228
g108
ag39
ag108
ag40
aa(lp229
g108
ag108
ag108
ag108
aa(lp230
g178
ag108
ag108
ag38
aa(lp231
g108
ag108
ag108
ag108
aaa(lp232
(lp233
g16
ag16
ag16
ag16
aa(lp234
g189
ag16
ag16
ag190
aa(lp235
g16
ag16
ag16
ag16
aa(lp236
g193
ag16
ag16
ag190
aa(lp237
g16
ag16
ag16
ag16
aa(lp238
g16
ag190
ag16
ag190
aa(lp239
g16
ag16
ag16
ag16
aa(lp240
g16
ag16
ag16
ag16
aa(lp241
g16
ag16
ag16
ag16
aaa(lp242
(lp243
g16
ag16
ag16
ag16
aa(lp244
g16
ag16
ag190
ag16
aa(lp245
g16
ag16
ag16
ag16
aa(lp246
g16
ag190
ag16
ag16
aa(lp247
g16
ag16
ag16
ag16
aa(lp248
g16
ag16
ag16
ag190
aa(lp249
g16
ag16
ag16
ag16
aa(lp250
g214
ag16
ag16
ag16
aa(lp251
g16
ag16
ag16
ag16
aaa(lp252
(lp253
g16
ag16
ag16
ag16
aa(lp254
g16
ag16
ag16
ag16
aa(lp255
g16
ag16
ag16
ag16
aa(lp256
g189
ag16
ag16
ag190
aa(lp257
g16
ag16
ag16
ag16
aa(lp258
g189
ag16
ag16
ag190
aa(lp259
g16
ag16
ag16
ag16
aa(lp260
g190
ag16
ag16
ag215
aa(lp261
g16
ag16
ag16
ag16
aa(lp262
g16
ag190
ag16
ag190
aa(lp263
g16
ag16
ag16
ag16
aaa(lp264
(lp265
g16
ag16
ag16
ag16
aa(lp266
g16
ag189
ag16
ag215
aa(lp267
g16
ag16
ag16
ag16
aa(lp268
g16
ag16
ag16
ag16
aa(lp269
g16
ag16
ag16
ag16
aa(lp270
g16
ag16
ag16
ag16
aaa(lp271
(lp272
g3
ag3
ag3
ag3
aa(lp273
g5
ag6
ag7
ag8
aa(lp274
g3
ag3
ag3
ag3
aa(lp275
g3
ag3
ag3
ag3
aa(lp276
g3
ag3
ag3
ag3
aa(lp277
g8
ag3
ag3
ag8
aa(lp278
g3
ag3
ag3
ag3
aaa(lp279
(lp280
g16
ag16
ag16
ag16
aa(lp281
g5
ag3
ag3
ag8
aa(lp282
g3
ag3
ag3
ag3
aa(lp283
g3
ag3
ag3
ag3
aa(lp284
g7
ag3
ag3
ag3
aa(lp285
g3
ag3
ag3
ag3
aaa(lp286
(lp287
g3
ag3
ag3
ag3
aa(lp288
g6
ag3
ag3
ag7
aa(lp289
g3
ag3
ag3
ag3
aa(lp290
g6
ag3
ag3
ag7
aa(lp291
g3
ag3
ag3
ag3
aa(lp292
g3
ag3
ag3
ag3
aa(lp293
g7
ag3
ag3
ag3
aa(lp294
g3
ag3
ag3
ag3
aa(lp295
g6
ag3
ag3
ag7
aa(lp296
g3
ag3
ag3
ag3
aa(lp297
g5
ag3
ag3
ag7
aa(lp298
g3
ag3
ag3
ag3
aaa(lp299
(lp300
g3
ag3
ag3
ag3
aa(lp301
g38
ag39
ag38
ag40
aa(lp302
g3
ag3
ag3
ag3
aa(lp303
g3
ag3
ag3
ag3
aa(lp304
g3
ag3
ag3
ag3
aa(lp305
g3
ag3
ag3
ag3
aaa(lp306
(lp307
g3
ag3
ag3
ag3
aa(lp308
g5
ag6
ag7
ag8
aa(lp309
g3
ag3
ag3
ag3
aa(lp310
g3
ag3
ag3
ag3
aa(lp311
g3
ag3
ag3
ag3
aa(lp312
g8
ag3
ag3
ag8
aa(lp313
g3
ag3
ag3
ag3
aaa(lp314
(lp315
g16
ag16
ag16
ag16
aa(lp316
g5
ag3
ag3
ag8
aa(lp317
g3
ag3
ag3
ag3
aa(lp318
g3
ag3
ag3
ag3
aa(lp319
g7
ag3
ag3
ag3
aa(lp320
g3
ag3
ag3
ag3
aaa(lp321
(lp322
g3
ag3
ag3
ag3
aa(lp323
g6
ag3
ag3
ag7
aa(lp324
g3
ag3
ag3
ag3
aa(lp325
g6
ag3
ag3
ag7
aa(lp326
g3
ag3
ag3
ag3
aa(lp327
g3
ag3
ag3
ag3
aa(lp328
g7
ag3
ag3
ag3
aa(lp329
g3
ag3
ag3
ag3
aa(lp330
g6
ag3
ag3
ag7
aa(lp331
g3
ag3
ag3
ag3
aa(lp332
g5
ag3
ag3
ag3
aa(lp333
g3
ag3
ag3
ag3
aaa(lp334
(lp335
g3
ag3
ag3
ag3
aa(lp336
g7
ag6
ag7
ag8
aa(lp337
g3
ag3
ag3
ag3
aa(lp338
g3
ag3
ag3
ag3
aa(lp339
g3
ag3
ag3
ag3
aa(lp340
g3
ag3
ag3
ag3
aaa(lp341
(lp342
g3
ag3
ag3
ag3
aa(lp343
g6
ag6
ag8
ag7
aa(lp344
g3
ag3
ag3
ag3
aa(lp345
g3
ag3
ag8
ag3
aa(lp346
g3
ag3
ag3
ag3
aa(lp347
g3
ag3
ag3
ag7
aa(lp348
g3
ag3
ag3
ag3
aa(lp349
g6
ag3
ag3
ag3
aa(lp350
g3
ag3
ag3
ag3
aa(lp351
g91
ag3
ag3
ag3
aa(lp352
g3
ag3
ag3
ag3
aaa(lp353
(lp354
g3
ag3
ag3
ag3
aag301
a(lp355
g3
ag3
ag3
ag3
aa(lp356
g3
ag3
ag7
ag3
aa(lp357
g3
ag3
ag3
ag3
aa(lp358
g3
ag6
ag3
ag3
aa(lp359
g3
ag3
ag3
ag3
aa(lp360
g3
ag3
ag3
ag8
aa(lp361
g3
ag3
ag3
ag3
aa(lp362
g5
ag3
ag3
ag3
aa(lp363
g3
ag3
ag3
ag3
aaa(lp364
(lp365
g3
ag3
ag3
ag3
aa(lp366
g39
ag38
ag38
ag38
aa(lp367
g108
ag108
ag108
ag108
aa(lp368
g108
ag108
ag38
ag108
aa(lp369
g108
ag108
ag108
ag108
aa(lp370
g108
ag38
ag108
ag108
aa(lp371
g108
ag108
ag108
ag108
aa(lp372
g108
ag108
ag108
ag38
aa(lp373
g108
ag108
ag108
ag108
aa(lp374
g39
ag108
ag108
ag108
aa(lp375
g108
ag108
ag108
ag108
aaa(lp376
(lp377
g3
ag3
ag3
ag3
aa(lp378
g7
ag6
ag7
ag8
aa(lp379
g3
ag3
ag3
ag3
aa(lp380
g3
ag3
ag7
ag3
aa(lp381
g3
ag3
ag3
ag3
aa(lp382
g3
ag6
ag3
ag3
aa(lp383
g3
ag3
ag3
ag3
aa(lp384
g3
ag3
ag3
ag8
aa(lp385
g3
ag3
ag3
ag3
aa(lp386
g5
ag3
ag3
ag3
aa(lp387
g3
ag3
ag3
ag3
aaa(lp388
(lp389
g3
ag3
ag3
ag3
aa(lp390
g6
ag6
ag8
ag7
aa(lp391
g3
ag3
ag3
ag3
aa(lp392
g3
ag3
ag8
ag3
aa(lp393
g3
ag3
ag3
ag3
aa(lp394
g3
ag3
ag3
ag7
aa(lp395
g3
ag3
ag3
ag3
aa(lp396
g6
ag3
ag3
ag3
aa(lp397
g3
ag3
ag3
ag3
aa(lp398
g91
ag3
ag3
ag3
aa(lp399
g3
ag3
ag3
ag3
aaa(lp400
(lp401
g3
ag3
ag3
ag3
aa(lp402
g7
ag6
ag7
ag8
aa(lp403
g3
ag3
ag3
ag3
aa(lp404
g3
ag3
ag7
ag3
aa(lp405
g3
ag3
ag3
ag3
aa(lp406
g3
ag6
ag3
ag3
aa(lp407
g3
ag3
ag3
ag3
aa(lp408
g3
ag3
ag3
ag8
aa(lp409
g3
ag3
ag3
ag3
aa(lp410
g5
ag3
ag3
ag3
aa(lp411
g3
ag3
ag3
ag3
aaa(lp412
(lp413
g108
ag108
ag108
ag108
aa(lp414
g39
ag38
ag38
ag38
aa(lp415
g108
ag108
ag108
ag108
aa(lp416
g108
ag108
ag38
ag108
aa(lp417
g108
ag108
ag108
ag108
aa(lp418
g108
ag108
ag38
ag108
aa(lp419
g108
ag108
ag108
ag108
aa(lp420
g39
ag108
ag108
ag38
aa(lp421
g108
ag108
ag108
ag108
aa(lp422
g38
ag108
ag108
ag108
aa(lp423
g108
ag108
ag108
ag108
aa(lp424
g108
ag38
ag108
ag38
aa(lp425
g108
ag108
ag108
ag108
aaa(lp426
(lp427
g108
ag108
ag108
ag108
aa(lp428
g108
ag39
ag108
ag40
aa(lp429
g108
ag108
ag108
ag108
aa(lp430
g108
ag108
ag108
ag108
aa(lp431
g108
ag108
ag108
ag108
aaa(lp432
(lp433
g16
ag16
ag16
ag16
aa(lp434
g190
ag189
ag190
ag215
aa(lp435
g16
ag16
ag16
ag16
aa(lp436
g189
ag190
ag190
ag190
aa(lp437
g16
ag16
ag16
ag16
aa(lp438
g190
ag189
ag190
ag215
aa(lp439
g16
ag16
ag16
ag16
aa(lp440
g16
ag16
ag16
ag16
aa(lp441
g16
ag16
ag16
ag16
aaa.