(lp0
(lp1
(lp2
S'-'
p3
ag3
ag3
ag3
aa(lp4
g3
aS'3'
p5
ag3
ag3
aa(lp6
g3
ag3
ag3
ag3
aa(lp7
S'2'
p8
ag3
ag3
ag3
aaa(lp9
(lp10
g3
ag3
ag3
ag3
aa(lp11
g5
aS'0'
p12
ag12
ag12
aa(lp13
g3
ag3
ag3
ag3
aa(lp14
g3
ag3
ag3
ag12
aa(lp15
g3
ag3
ag3
ag3
aa(lp16
g3
ag3
ag12
ag3
aa(lp17
g3
ag3
ag3
ag3
aa(lp18
g8
ag3
ag3
ag3
aa(lp19
g3
ag3
ag3
ag3
aa(lp20
g12
ag3
ag3
ag3
aa(lp21
g3
ag3
ag3
ag3
aa(lp22
g3
ag5
ag3
ag3
aaa(lp23
(lp24
g3
ag3
ag3
ag3
aa(lp25
g3
ag12
ag12
ag8
aa(lp26
g3
ag3
ag3
ag3
aa(lp27
g3
ag3
ag3
ag8
aa(lp28
g3
ag3
ag3
ag3
aa(lp29
g3
ag3
ag12
ag3
aa(lp30
g3
ag3
ag3
ag3
aa(lp31
g3
ag12
ag3
ag3
aa(lp32
g3
ag3
ag3
ag3
aa(lp33
g3
ag3
ag8
ag3
aa(lp34
g3
ag3
ag3
ag3
aa(lp35
g3
ag12
ag3
ag3
aa(lp36
g3
ag3
ag3
ag3
aaa(lp37
(lp38
g3
ag3
ag3
ag3
aa(lp39
g12
aS'1'
p40
ag12
ag8
aa(lp41
g3
ag3
ag3
ag3
aa(lp42
g3
ag3
ag3
ag8
aa(lp43
g3
ag3
ag3
ag3
aa(lp44
g3
ag3
ag12
ag3
aa(lp45
g3
ag3
ag3
ag3
aa(lp46
g3
ag12
ag3
ag3
aa(lp47
g3
ag3
ag3
ag3
aa(lp48
g3
ag3
ag8
ag3
aa(lp49
g3
ag3
ag3
ag3
aa(lp50
g3
ag3
ag12
ag3
aa(lp51
g3
ag3
ag3
ag3
aaa(lp52
(lp53
g3
ag3
ag3
ag3
aa(lp54
g3
ag3
ag3
ag8
aa(lp55
g3
ag3
ag3
ag3
aa(lp56
g3
ag40
ag3
ag3
aa(lp57
g3
ag3
ag3
ag3
aa(lp58
g3
ag3
ag12
ag3
aa(lp59
g3
ag3
ag3
ag3
aa(lp60
g3
ag40
ag3
ag3
aa(lp61
g3
ag3
ag3
ag3
aa(lp62
g3
ag3
ag12
ag3
aa(lp63
g3
ag3
ag3
ag8
aa(lp64
g3
ag3
ag3
ag3
aaa(lp65
(lp66
g3
ag3
ag3
ag3
aa(lp67
g3
ag3
ag3
ag12
aa(lp68
g3
ag3
ag3
ag3
aa(lp69
g5
ag3
ag3
ag3
aa(lp70
g3
ag3
ag3
ag3
aa(lp71
g3
ag3
ag12
ag3
aa(lp72
g3
ag3
ag3
ag3
aa(lp73
g5
ag3
ag3
ag3
aa(lp74
g3
ag3
ag3
ag3
aa(lp75
g3
ag12
ag3
ag3
aa(lp76
g3
ag3
ag3
ag3
aa(lp77
g5
ag3
ag3
ag3
aa(lp78
g3
ag3
ag3
ag3
aaa(lp79
(lp80
g3
ag3
ag3
ag3
aa(lp81
g3
ag5
ag3
ag3
aa(lp82
g3
ag3
ag3
ag3
aa(lp83
g3
ag3
ag12
ag3
aa(lp84
g3
ag3
ag3
ag3
aa(lp85
g5
ag3
ag3
ag3
aa(lp86
g3
ag3
ag3
ag3
aa(lp87
g3
ag5
ag3
ag3
aa(lp88
g3
ag3
ag3
ag3
aa(lp89
S'7'
p90
ag3
ag3
ag3
aa(lp91
g3
ag3
ag3
ag3
aaa(lp92
(lp93
g3
ag3
ag3
ag3
aa(lp94
g90
aS'8'
p95
aS'9'
p96
aS'10'
p97
aa(lp98
g3
ag3
ag3
ag3
aa(lp99
g3
ag3
ag3
aS'10'
p100
aa(lp101
g3
ag3
ag3
ag3
aa(lp102
g3
ag3
ag96
ag3
aa(lp103
g3
ag3
ag3
ag3
aa(lp104
g95
ag3
ag3
ag3
aa(lp105
g3
ag3
ag3
ag3
aa(lp106
g90
ag3
ag3
ag3
aa(lp107
g3
ag3
ag3
ag3
aaa(lp108
(lp109
g3
ag3
ag3
ag3
aa(lp110
S'5'
p111
ag5
ag111
aS'4'
p112
aa(lp113
g3
ag3
ag3
ag3
aa(lp114
g3
ag3
ag3
ag112
aa(lp115
g3
ag3
ag3
ag3
aa(lp116
g3
ag3
ag111
ag3
aa(lp117
g3
ag3
ag3
ag3
aa(lp118
g3
ag5
ag3
ag3
aa(lp119
g3
ag3
ag3
ag3
aa(lp120
g5
ag3
ag3
ag3
aa(lp121
g3
ag3
ag3
ag3
aa(lp122
g8
ag3
ag3
ag3
aa(lp123
g3
ag3
ag3
ag3
aaa(lp124
(lp125
g3
ag3
ag3
ag3
aa(lp126
g5
ag12
ag12
ag12
aa(lp127
g3
ag3
ag3
ag3
aa(lp128
g3
ag3
ag3
ag12
aa(lp129
g3
ag3
ag3
ag3
aa(lp130
g3
ag3
ag12
ag3
aa(lp131
g3
ag3
ag3
ag3
aa(lp132
g8
ag3
ag3
ag3
aa(lp133
g3
ag3
ag3
ag3
aa(lp134
g12
ag3
ag3
ag3
aa(lp135
g3
ag3
ag3
ag3
aa(lp136
g3
ag5
ag3
ag3
aa(lp137
g3
ag3
ag3
ag3
aaa(lp138
(lp139
g3
ag3
ag3
ag3
aa(lp140
g3
ag12
ag12
ag8
aa(lp141
g3
ag3
ag3
ag3
aa(lp142
g3
ag3
ag3
ag8
aa(lp143
g3
ag3
ag3
ag3
aa(lp144
g3
ag3
ag12
ag3
aa(lp145
g3
ag3
ag3
ag3
aa(lp146
g3
ag12
ag3
ag3
aa(lp147
g3
ag3
ag3
ag3
aa(lp148
g3
ag3
ag8
ag3
aa(lp149
g3
ag3
ag3
ag3
aa(lp150
g3
ag12
ag3
ag3
aa(lp151
g3
ag3
ag3
ag3
aaa(lp152
(lp153
g3
ag3
ag3
ag3
aag39
a(lp154
g3
ag3
ag3
ag3
aa(lp155
g3
ag3
ag3
ag8
aa(lp156
g3
ag3
ag3
ag3
aa(lp157
g3
ag3
ag12
ag3
aa(lp158
g3
ag3
ag3
ag3
aa(lp159
g3
ag12
ag3
ag3
aa(lp160
g3
ag3
ag3
ag3
aa(lp161
g3
ag3
ag8
ag3
aa(lp162
g3
ag3
ag3
ag3
aa(lp163
g3
ag3
ag12
ag3
aa(lp164
g3
ag3
ag3
ag3
aaa(lp165
(lp166
g3
ag3
ag3
ag3
aa(lp167
g3
ag3
ag3
ag8
aa(lp168
g3
ag3
ag3
ag3
aa(lp169
g3
ag40
ag3
ag3
aa(lp170
g3
ag3
ag3
ag3
aa(lp171
g3
ag3
ag12
ag3
aa(lp172
g3
ag3
ag3
ag3
aa(lp173
g3
ag40
ag3
ag3
aa(lp174
g3
ag3
ag3
ag3
aa(lp175
g3
ag3
ag12
ag3
aa(lp176
g3
ag3
ag3
ag8
aa(lp177
g3
ag3
ag3
ag3
aaa(lp178
(lp179
g3
ag3
ag3
ag3
aa(lp180
g3
ag3
ag3
ag12
aa(lp181
g3
ag3
ag3
ag3
aa(lp182
g5
ag3
ag3
ag3
aa(lp183
g3
ag3
ag3
ag3
aa(lp184
g3
ag3
ag12
ag3
aa(lp185
g3
ag3
ag3
ag3
aa(lp186
g5
ag3
ag3
ag3
aa(lp187
g3
ag3
ag3
ag3
aa(lp188
g3
ag12
ag3
ag3
aa(lp189
g3
ag3
ag3
ag3
aa(lp190
g5
ag3
ag3
ag3
aa(lp191
g3
ag3
ag3
ag3
aaa(lp192
(lp193
g3
ag3
ag3
ag3
aa(lp194
g3
ag5
ag3
ag3
aa(lp195
g3
ag3
ag3
ag3
aa(lp196
g5
ag3
ag3
ag3
aa(lp197
g3
ag3
ag3
ag3
aa(lp198
g3
ag12
ag3
ag3
aa(lp199
g3
ag3
ag3
ag3
aa(lp200
g5
ag3
ag3
ag3
aa(lp201
g3
ag3
ag3
ag3
aa(lp202
g3
ag3
ag12
ag3
aa(lp203
g3
ag3
ag3
ag3
aa(lp204
g5
ag3
ag3
ag3
aa(lp205
g3
ag3
ag3
ag3
aaa(lp206
(lp207
g3
ag3
ag3
ag3
aa(lp208
g3
ag5
ag8
ag12
aa(lp209
g3
ag3
ag3
ag3
aa(lp210
g3
ag3
ag3
ag12
aa(lp211
g3
ag3
ag3
ag3
aa(lp212
g3
ag3
ag8
ag3
aa(lp213
g3
ag3
ag3
ag3
aa(lp214
g8
ag3
ag3
ag3
aa(lp215
g3
ag3
ag3
ag3
aa(lp216
g111
ag3
ag3
ag3
aa(lp217
g3
ag3
ag3
ag3
aaa(lp218
(lp219
g3
ag3
ag3
ag3
aag126
a(lp220
g3
ag3
ag3
ag3
aa(lp221
g3
ag3
ag3
ag3
aa(lp222
g3
ag3
ag3
ag3
aa(lp223
g3
ag12
ag3
ag3
aa(lp224
g3
ag3
ag3
ag3
aa(lp225
g3
ag40
ag3
ag3
aa(lp226
g3
ag3
ag3
ag3
aaa(lp227
(lp228
g3
ag3
ag3
ag3
aa(lp229
g3
ag5
ag12
ag12
aa(lp230
g3
ag3
ag3
ag3
aa(lp231
g3
ag3
ag3
ag12
aa(lp232
g3
ag3
ag3
ag3
aa(lp233
g3
ag3
ag12
ag3
aa(lp234
g3
ag3
ag3
ag3
aa(lp235
g3
ag12
ag3
ag3
aa(lp236
g3
ag3
ag3
ag3
aa(lp237
g3
ag3
ag12
ag3
aa(lp238
g3
ag3
ag3
ag3
aa(lp239
g3
ag3
ag3
ag12
aa(lp240
g3
ag3
ag3
ag3
aaa(lp241
(lp242
g3
ag3
ag3
ag3
aag126
a(lp243
g3
ag3
ag3
ag3
aa(lp244
g3
ag3
ag3
ag12
aa(lp245
g3
ag3
ag3
ag3
aa(lp246
g3
ag3
ag12
ag3
aa(lp247
g3
ag3
ag3
ag3
aa(lp248
g3
ag12
ag3
ag3
aa(lp249
g3
ag3
ag3
ag3
aa(lp250
g8
ag12
ag12
ag12
aa(lp251
g3
ag3
ag3
ag3
aaa(lp252
(lp253
g3
ag3
ag3
ag3
aag39
a(lp254
g3
ag3
ag3
ag3
aa(lp255
g3
ag3
ag3
ag8
aa(lp256
g3
ag3
ag3
ag3
aa(lp257
g3
ag3
ag12
ag3
aa(lp258
g3
ag3
ag3
ag3
aa(lp259
g8
ag3
ag3
ag3
aa(lp260
g3
ag3
ag3
ag3
aa(lp261
g5
ag3
ag3
ag3
aa(lp262
g3
ag3
ag3
ag3
aaa(lp263
(lp264
g3
ag3
ag3
ag3
aa(lp265
g3
ag5
ag12
ag12
aa(lp266
g3
ag3
ag3
ag3
aa(lp267
g3
ag12
ag3
ag3
aa(lp268
g3
ag3
ag3
ag3
aa(lp269
g3
ag3
ag3
ag3
aa(lp270
g3
ag3
ag3
ag3
aa(lp271
g3
ag3
ag3
ag12
aa(lp272
g3
ag3
ag3
ag3
aa(lp273
g3
ag3
ag12
ag3
aa(lp274
g3
ag3
ag3
ag3
aa(lp275
g3
ag12
ag3
ag3
aa(lp276
g3
ag3
ag3
ag3
aa(lp277
g3
ag3
ag8
ag3
aa(lp278
g3
ag3
ag3
ag3
aaa(lp279
(lp280
g3
ag3
ag3
ag3
aa(lp281
g3
ag12
ag3
ag3
aa(lp282
g3
ag3
ag3
ag3
aa(lp283
g3
ag3
ag3
ag12
aa(lp284
g3
ag3
ag3
ag3
aa(lp285
g3
ag3
ag8
ag3
aa(lp286
g3
ag3
ag3
ag3
aa(lp287
g3
ag3
ag3
ag12
aa(lp288
g3
ag3
ag3
ag3
aa(lp289
g3
ag3
ag12
ag3
aa(lp290
g3
ag3
ag3
ag3
aa(lp291
g3
ag3
ag3
ag12
aa(lp292
g3
ag3
ag3
ag3
aaa(lp293
(lp294
g3
ag3
ag3
ag3
aa(lp295
g3
ag3
ag3
ag8
aa(lp296
g3
ag3
ag3
ag3
aa(lp297
g3
ag40
ag3
ag3
aa(lp298
g3
ag3
ag3
ag3
aa(lp299
g3
ag3
ag12
ag3
aa(lp300
g3
ag3
ag3
ag3
aa(lp301
g3
ag40
ag3
ag3
aa(lp302
g3
ag3
ag3
ag3
aa(lp303
g3
ag3
ag3
ag8
aa(lp304
g3
ag3
ag3
ag3
aa(lp305
g3
ag40
ag3
ag3
aa(lp306
g3
ag3
ag3
ag3
aaa(lp307
(lp308
g3
ag3
ag3
ag3
aa(lp309
g3
ag3
ag3
ag12
aa(lp310
g3
ag3
ag3
ag3
aa(lp311
g3
ag3
ag8
ag3
aa(lp312
g3
ag3
ag3
ag3
aa(lp313
g3
ag40
ag3
ag3
aa(lp314
g3
ag3
ag3
ag3
aa(lp315
g12
ag3
ag3
ag3
aa(lp316
g3
ag3
ag3
ag3
aa(lp317
g8
ag3
ag3
ag3
aa(lp318
g3
ag3
ag3
ag3
aa(lp319
g5
ag3
ag3
ag3
aa(lp320
g3
ag3
ag3
ag3
aa(lp321
g8
ag3
ag3
ag3
aa(lp322
g3
ag3
ag3
ag3
aa(lp323
g12
ag3
ag3
ag3
aa(lp324
g3
ag3
ag3
ag3
aa(lp325
g3
ag40
ag3
ag3
aa(lp326
g3
ag3
ag3
ag3
aa(lp327
g3
ag3
ag8
ag3
aa(lp328
g3
ag3
ag3
ag3
aa(lp329
g3
ag12
ag3
ag3
aa(lp330
g3
ag3
ag3
ag3
aa(lp331
g3
ag3
ag8
ag3
aa(lp332
g3
ag3
ag3
ag3
aaa(lp333
(lp334
g3
ag3
ag3
ag3
aa(lp335
g3
ag3
ag12
ag3
aa(lp336
g3
ag3
ag3
ag3
aa(lp337
g3
ag3
ag3
ag12
aa(lp338
g3
ag3
ag3
ag3
aa(lp339
g3
ag12
ag3
ag3
aa(lp340
g3
ag3
ag3
ag3
aa(lp341
g3
ag3
ag3
ag12
aa(lp342
g3
ag3
ag3
ag3
aa(lp343
g3
ag5
ag3
ag3
aa(lp344
g3
ag3
ag3
ag3
aa(lp345
g3
ag3
ag3
ag12
aa(lp346
g3
ag3
ag3
ag3
aaa(lp347
(lp348
g3
ag3
ag3
ag3
aa(lp349
g40
ag40
ag8
ag12
aa(lp350
g3
ag3
ag3
ag3
aa(lp351
g3
ag3
ag3
ag12
aa(lp352
g3
ag3
ag3
ag3
aa(lp353
g3
ag3
ag8
ag3
aa(lp354
g3
ag3
ag3
ag3
aa(lp355
g3
ag40
ag3
ag3
aa(lp356
g3
ag3
ag3
ag3
aa(lp357
g5
ag3
ag3
ag3
aa(lp358
g3
ag3
ag3
ag3
aa(lp359
g40
ag3
ag3
ag3
aa(lp360
g3
ag3
ag3
ag3
aaa(lp361
(lp362
g3
ag3
ag3
ag3
aag39
a(lp363
g3
ag3
ag3
ag3
aa(lp364
g3
ag3
ag3
ag8
aa(lp365
g3
ag3
ag3
ag3
aa(lp366
g3
ag3
ag12
ag3
aa(lp367
g3
ag3
ag3
ag3
aa(lp368
g8
ag3
ag3
ag3
aa(lp369
g3
ag3
ag3
ag3
aa(lp370
g5
ag3
ag3
ag3
aa(lp371
g3
ag3
ag3
ag3
aaa(lp372
(lp373
g3
ag3
ag3
ag3
aa(lp374
g3
ag5
ag12
ag12
aa(lp375
g3
ag3
ag3
ag3
aa(lp376
g3
ag12
ag3
ag3
aa(lp377
g3
ag3
ag3
ag3
aa(lp378
g3
ag3
ag3
ag12
aa(lp379
g3
ag3
ag3
ag3
aa(lp380
g3
ag3
ag12
ag3
aa(lp381
g3
ag3
ag3
ag3
aa(lp382
g3
ag12
ag3
ag3
aa(lp383
g3
ag3
ag3
ag3
aa(lp384
g3
ag3
ag12
ag3
aa(lp385
g3
ag3
ag3
ag3
aaag65
ag79
ag206
a(lp386
(lp387
S'-'
p388
ag388
ag388
ag388
aa(lp389
S'3'
p390
aS'0'
p391
ag391
ag391
aa(lp392
g388
ag388
ag388
ag388
aa(lp393
g388
ag388
ag388
ag388
aa(lp394
g388
ag388
ag388
ag388
aa(lp395
g388
ag388
ag388
ag388
aa(lp396
g388
ag388
ag388
ag388
aa(lp397
g388
ag388
ag388
ag388
aaa.