(lp0
(lp1
(lp2
S'-'
p3
ag3
ag3
ag3
aa(lp4
g3
ag3
ag3
aS'0'
p5
aa(lp6
g3
ag3
ag3
ag3
aa(lp7
g3
ag3
aS'2'
p8
ag3
aa(lp9
g3
ag3
ag3
ag3
aa(lp10
g8
ag3
ag3
ag3
aa(lp11
g3
ag3
ag3
ag3
aa(lp12
g5
ag3
ag3
ag3
aa(lp13
g3
ag3
ag3
ag3
aa(lp14
g8
ag3
ag3
ag3
aa(lp15
g3
ag3
ag3
ag3
aa(lp16
g3
ag3
ag8
ag3
aa(lp17
g3
ag3
ag3
ag3
aa(lp18
g8
ag3
ag3
ag3
aa(lp19
g3
ag3
ag3
ag3
aa(lp20
g3
ag3
ag8
ag3
aa(lp21
g3
ag3
ag3
ag3
aa(lp22
g3
ag3
ag3
ag5
aa(lp23
g3
ag3
ag3
ag3
aa(lp24
g3
ag3
ag8
ag3
aa(lp25
g3
ag3
ag3
ag3
aa(lp26
g8
ag3
ag3
ag3
aa(lp27
g3
ag3
ag3
ag3
aa(lp28
g5
ag3
ag3
ag3
aa(lp29
g3
ag3
ag3
ag3
aa(lp30
g8
ag3
ag3
ag3
aa(lp31
g3
ag3
ag3
ag3
aa(lp32
g3
ag3
ag8
ag3
aa(lp33
g3
ag3
ag3
ag3
aa(lp34
g8
ag3
ag3
ag3
aa(lp35
g3
ag3
ag3
ag3
aa(lp36
g3
ag3
ag8
ag3
aa(lp37
g3
ag3
ag3
ag3
aaa(lp38
(lp39
g3
ag3
ag3
ag3
aa(lp40
g3
ag3
ag3
ag5
aa(lp41
g3
ag3
ag3
ag3
aa(lp42
g3
ag5
ag3
ag3
aa(lp43
g3
ag3
ag3
ag3
aa(lp44
S'3'
p45
ag3
ag3
ag3
aa(lp46
g3
ag3
ag3
ag3
aa(lp47
g8
ag3
ag3
ag3
aa(lp48
g3
ag3
ag3
ag3
aa(lp49
g45
ag3
ag3
ag3
aa(lp50
g3
ag3
ag3
ag3
aa(lp51
g3
ag5
ag3
ag3
aa(lp52
g3
ag3
ag3
ag3
aa(lp53
g45
ag3
ag3
ag3
aa(lp54
g3
ag3
ag3
ag3
aa(lp55
g3
ag5
ag3
ag3
aa(lp56
g3
ag3
ag3
ag3
aa(lp57
g3
ag3
ag3
ag5
aa(lp58
g3
ag3
ag3
ag3
aa(lp59
g3
ag5
ag3
ag3
aa(lp60
g3
ag3
ag3
ag3
aa(lp61
g45
ag3
ag3
ag3
aa(lp62
g3
ag3
ag3
ag3
aa(lp63
g8
ag3
ag3
ag3
aa(lp64
g3
ag3
ag3
ag3
aa(lp65
g45
ag3
ag3
ag3
aa(lp66
g3
ag3
ag3
ag3
aa(lp67
g3
ag5
ag3
ag3
aa(lp68
g3
ag3
ag3
ag3
aa(lp69
g45
ag3
ag3
ag3
aa(lp70
g3
ag3
ag3
ag3
aa(lp71
g3
ag5
ag3
ag3
aa(lp72
g3
ag3
ag3
ag3
aaa(lp73
(lp74
g3
ag3
ag3
ag3
aa(lp75
g3
ag3
ag3
ag5
aa(lp76
g3
ag3
ag3
ag3
aa(lp77
g3
ag8
ag3
ag3
aa(lp78
g3
ag3
ag3
ag3
aa(lp79
g45
ag3
ag3
ag3
aa(lp80
g3
ag3
ag3
ag3
aa(lp81
g8
ag3
ag3
ag3
aa(lp82
g3
ag3
ag3
ag3
aa(lp83
g45
ag3
ag3
ag3
aa(lp84
g3
ag3
ag3
ag3
aa(lp85
g3
ag8
ag3
ag3
aa(lp86
g3
ag3
ag3
ag3
aa(lp87
g45
ag3
ag3
ag3
aa(lp88
g3
ag3
ag3
ag3
aa(lp89
g3
ag8
ag3
ag3
aa(lp90
g3
ag3
ag3
ag3
aa(lp91
g3
ag3
ag3
ag5
aa(lp92
g3
ag3
ag3
ag3
aa(lp93
g3
ag8
ag3
ag3
aa(lp94
g3
ag3
ag3
ag3
aa(lp95
g45
ag3
ag3
ag3
aa(lp96
g3
ag3
ag3
ag3
aa(lp97
g8
ag3
ag3
ag3
aa(lp98
g3
ag3
ag3
ag3
aa(lp99
g45
ag3
ag3
ag3
aa(lp100
g3
ag3
ag3
ag3
aa(lp101
g3
ag8
ag3
ag3
aa(lp102
g3
ag3
ag3
ag3
aa(lp103
g45
ag3
ag3
ag3
aa(lp104
g3
ag3
ag3
ag3
aa(lp105
g3
ag8
ag3
ag3
aa(lp106
g3
ag3
ag3
ag3
aaa(lp107
(lp108
g3
ag3
ag3
ag3
aa(lp109
g3
ag3
ag3
ag5
aa(lp110
g3
ag3
ag3
ag3
aa(lp111
g3
ag45
ag3
ag3
aa(lp112
g3
ag3
ag3
ag3
aa(lp113
g8
ag3
ag3
ag3
aa(lp114
g3
ag3
ag3
ag3
aa(lp115
g5
ag3
ag3
ag3
aa(lp116
g3
ag3
ag3
ag3
aa(lp117
g8
ag3
ag3
ag3
aa(lp118
g3
ag3
ag3
ag3
aa(lp119
g3
ag45
ag3
ag3
aa(lp120
g3
ag3
ag3
ag3
aa(lp121
g8
ag3
ag3
ag3
aa(lp122
g3
ag3
ag3
ag3
aa(lp123
g3
ag45
ag3
ag3
aa(lp124
g3
ag3
ag3
ag3
aa(lp125
g3
ag3
ag3
ag5
aa(lp126
g3
ag3
ag3
ag3
aa(lp127
g3
ag45
ag3
ag3
aa(lp128
g3
ag3
ag3
ag3
aa(lp129
g8
ag3
ag3
ag3
aa(lp130
g3
ag3
ag3
ag3
aa(lp131
g5
ag3
ag3
ag3
aa(lp132
g3
ag3
ag3
ag3
aa(lp133
g8
ag3
ag3
ag3
aa(lp134
g3
ag3
ag3
ag3
aa(lp135
g3
ag45
ag3
ag3
aa(lp136
g3
ag3
ag3
ag3
aa(lp137
g8
ag3
ag3
ag3
aa(lp138
g3
ag3
ag3
ag3
aa(lp139
g3
ag8
ag3
ag3
aa(lp140
g3
ag3
ag3
ag3
aaa(lp141
(lp142
g3
ag3
ag3
ag3
aa(lp143
g3
ag3
ag3
ag5
aa(lp144
g3
ag3
ag3
ag3
aa(lp145
g3
ag5
ag3
ag3
aa(lp146
g3
ag3
ag3
ag3
aa(lp147
g8
ag3
ag3
ag3
aa(lp148
g3
ag3
ag3
ag3
aa(lp149
g5
ag3
ag3
ag3
aa(lp150
g3
ag3
ag3
ag3
aa(lp151
g8
ag3
ag3
ag3
aa(lp152
g3
ag3
ag3
ag3
aa(lp153
g3
ag45
ag3
ag3
aa(lp154
g3
ag3
ag3
ag3
aa(lp155
g3
ag8
ag3
ag3
aa(lp156
g3
ag3
ag3
ag3
aa(lp157
g3
ag45
ag3
ag3
aa(lp158
g3
ag3
ag3
ag3
aa(lp159
g3
ag3
aS'4'
p160
ag3
aa(lp161
g3
ag3
ag3
ag3
aa(lp162
g3
ag45
ag3
ag3
aa(lp163
g3
ag3
ag3
ag3
aa(lp164
g3
ag8
ag3
ag3
aa(lp165
g3
ag3
ag3
ag3
aa(lp166
S'-'
p167
aS'3'
p168
ag167
ag167
aa(lp169
g3
ag3
ag3
ag3
aa(lp170
g167
ag167
ag167
aS'4'
p171
aa(lp172
g3
ag3
ag3
ag3
aa(lp173
g167
ag167
ag167
aS'7'
p174
aa(lp175
g3
ag3
ag3
ag3
aa(lp176
g167
ag167
ag167
aS'5'
p177
aa(lp178
g3
ag3
ag3
ag3
aa(lp179
g167
ag167
ag167
ag171
aa(lp180
g3
ag3
ag3
ag3
aaa(lp181
(lp182
g3
ag3
ag3
ag3
aa(lp183
g3
ag3
aS'1'
p184
ag3
aa(lp185
g3
ag3
ag3
ag3
aa(lp186
g3
ag45
ag3
ag3
aa(lp187
g3
ag3
ag3
ag3
aa(lp188
g5
ag3
ag3
ag3
aa(lp189
g3
ag3
ag3
ag3
aa(lp190
g3
ag45
ag3
ag3
aa(lp191
g3
ag3
ag3
ag3
aa(lp192
g5
ag3
ag3
ag3
aa(lp193
g3
ag3
ag3
ag3
aa(lp194
g3
ag45
ag3
ag3
aa(lp195
g3
ag3
ag3
ag3
aa(lp196
g5
ag3
ag3
ag3
aa(lp197
g3
ag3
ag3
ag3
aa(lp198
g3
ag45
ag3
ag3
aa(lp199
g3
ag3
ag3
ag3
aa(lp200
g3
ag3
ag184
ag3
aa(lp201
g3
ag3
ag3
ag3
aa(lp202
g3
ag45
ag3
ag3
aa(lp203
g3
ag3
ag3
ag3
aa(lp204
g5
ag3
ag3
ag3
aa(lp205
g3
ag3
ag3
ag3
aa(lp206
g3
ag45
ag3
ag3
aa(lp207
g3
ag3
ag3
ag3
aa(lp208
g5
ag3
ag3
ag3
aa(lp209
g3
ag3
ag3
ag3
aa(lp210
g3
ag45
ag3
ag3
aa(lp211
g3
ag3
ag3
ag3
aa(lp212
g5
ag3
ag3
ag3
aa(lp213
g3
ag3
ag3
ag3
aa(lp214
g3
ag45
ag3
ag3
aa(lp215
g3
ag3
ag3
ag3
aaa(lp216
(lp217
g3
ag3
ag3
ag3
aa(lp218
g3
ag8
ag3
ag3
aa(lp219
g3
ag3
ag3
ag3
aa(lp220
g3
aS'5'
p221
ag3
ag3
aa(lp222
g3
ag3
ag3
ag3
aa(lp223
g221
ag3
ag3
ag3
aa(lp224
g3
ag3
ag3
ag3
aa(lp225
g160
ag3
ag3
ag3
aa(lp226
g3
ag3
ag3
ag3
aa(lp227
g221
ag3
ag3
ag3
aa(lp228
g3
ag3
ag3
ag3
aa(lp229
g5
ag3
ag3
ag3
aa(lp230
g3
ag3
ag3
ag3
aa(lp231
g3
ag45
ag3
ag3
aa(lp232
g3
ag3
ag3
ag3
aa(lp233
g5
ag3
ag3
ag3
aa(lp234
g3
ag3
ag3
ag3
aa(lp235
g3
ag8
ag3
ag3
aa(lp236
g3
ag3
ag3
ag3
aa(lp237
g5
ag3
ag3
ag3
aa(lp238
g3
ag3
ag3
ag3
aa(lp239
g3
ag45
ag3
ag3
aa(lp240
g3
ag3
ag3
ag3
aa(lp241
g5
ag3
ag3
ag3
aa(lp242
g3
ag3
ag3
ag3
aa(lp243
g3
ag3
ag8
ag3
aa(lp244
g3
ag3
ag3
ag3
aa(lp245
g3
ag8
ag3
ag3
aa(lp246
g3
ag3
ag3
ag3
aa(lp247
g3
ag5
ag3
ag3
aa(lp248
g3
ag3
ag3
ag3
aa(lp249
g3
ag3
ag8
ag3
aa(lp250
g3
ag3
ag3
ag3
aaa(lp251
(lp252
g3
ag3
ag3
ag3
aa(lp253
g3
ag3
ag160
ag3
aa(lp254
g3
ag3
ag3
ag3
aa(lp255
g3
ag3
ag160
ag3
aa(lp256
g3
ag3
ag3
ag3
aa(lp257
g3
ag45
ag3
ag3
aa(lp258
g3
ag3
ag3
ag3
aa(lp259
g3
ag8
ag3
ag3
aa(lp260
g3
ag3
ag3
ag3
aa(lp261
g3
ag45
ag3
ag3
aa(lp262
g3
ag3
ag3
ag3
aa(lp263
g3
ag3
ag160
ag3
aa(lp264
g3
ag3
ag3
ag3
aa(lp265
g3
ag45
ag3
ag3
aa(lp266
g3
ag3
ag3
ag3
aa(lp267
g3
ag3
ag160
ag3
aa(lp268
g3
ag3
ag3
ag3
aa(lp269
g3
ag3
ag160
ag3
aa(lp270
g3
ag3
ag3
ag3
aa(lp271
g3
ag3
ag160
ag3
aa(lp272
g3
ag3
ag3
ag3
aa(lp273
g3
ag45
ag3
ag3
aa(lp274
g3
ag3
ag3
ag3
aa(lp275
g3
ag8
ag3
ag3
aa(lp276
g3
ag3
ag3
ag3
aa(lp277
g3
ag45
ag3
ag3
aa(lp278
g3
ag3
ag3
ag3
aa(lp279
g3
ag3
ag160
ag3
aa(lp280
g3
ag3
ag3
ag3
aa(lp281
g3
ag45
ag3
ag3
aa(lp282
g3
ag3
ag3
ag3
aa(lp283
g3
ag160
ag3
ag3
aa(lp284
g3
ag3
ag3
ag3
aaa(lp285
(lp286
g3
ag3
ag3
ag3
aa(lp287
g3
ag3
ag184
ag3
aa(lp288
g3
ag3
ag3
ag3
aa(lp289
g3
ag3
ag184
ag3
aa(lp290
g3
ag3
ag3
ag3
aa(lp291
g3
ag3
ag8
ag3
aa(lp292
g3
ag3
ag3
ag3
aa(lp293
g3
ag5
ag3
ag3
aa(lp294
g3
ag3
ag3
ag3
aa(lp295
g3
ag3
ag8
ag3
aa(lp296
g3
ag3
ag3
ag3
aa(lp297
g3
ag3
ag184
ag3
aa(lp298
g3
ag3
ag3
ag3
aa(lp299
S'-'
p300
ag300
ag300
aS'4'
p301
aa(lp302
g3
ag3
ag3
ag3
aa(lp303
g300
ag300
ag300
aS'2'
p304
aa(lp305
g3
ag3
ag3
ag3
aa(lp306
g3
ag45
ag3
ag3
aa(lp307
g3
ag3
ag3
ag3
aa(lp308
g3
ag8
ag3
ag3
aa(lp309
g3
ag3
ag3
ag3
aa(lp310
g3
ag5
ag3
ag3
aa(lp311
g3
ag3
ag3
ag3
aa(lp312
g221
ag3
ag3
ag3
aa(lp313
g3
ag3
ag3
ag3
aa(lp314
g160
ag3
ag3
ag3
aa(lp315
g3
ag3
ag3
ag3
aa(lp316
g8
ag3
ag3
ag3
aa(lp317
g3
ag3
ag3
ag3
aa(lp318
g5
ag3
ag3
ag3
aa(lp319
g3
ag3
ag3
ag3
aa(lp320
g3
ag45
ag3
ag3
aa(lp321
g3
ag3
ag3
ag3
aaa(lp322
(lp323
g3
ag3
ag3
ag3
aa(lp324
g3
ag8
ag3
ag3
aa(lp325
g3
ag3
ag3
ag3
aa(lp326
g3
ag5
ag3
ag3
aa(lp327
g3
ag3
ag3
ag3
aa(lp328
g3
ag3
ag8
ag3
aa(lp329
g3
ag3
ag3
ag3
aa(lp330
g221
ag3
ag3
ag3
aa(lp331
g3
ag3
ag3
ag3
aa(lp332
g3
ag221
ag3
ag3
aa(lp333
g3
ag3
ag3
ag3
aa(lp334
g221
ag3
ag3
ag3
aa(lp335
g3
ag3
ag3
ag3
aa(lp336
g3
ag8
ag3
ag3
aa(lp337
g3
ag3
ag3
ag3
aa(lp338
g5
ag3
ag3
ag3
aa(lp339
g3
ag3
ag3
ag3
aa(lp340
g3
ag3
ag8
ag3
aa(lp341
g3
ag3
ag3
ag3
aa(lp342
g3
ag5
ag3
ag3
aa(lp343
g3
ag3
ag3
ag3
aa(lp344
g3
ag8
ag3
ag3
aa(lp345
g3
ag3
ag3
ag3
aa(lp346
g5
ag3
ag3
ag3
aa(lp347
g3
ag3
ag3
ag3
aa(lp348
g3
ag45
ag3
ag3
aa(lp349
g3
ag3
ag3
ag3
aa(lp350
g3
ag8
ag3
ag3
aa(lp351
g3
ag3
ag3
ag3
aa(lp352
g3
ag5
ag3
ag3
aa(lp353
g3
ag3
ag3
ag3
aa(lp354
g3
ag3
ag8
ag3
aa(lp355
g3
ag3
ag3
ag3
aaa(lp356
(lp357
g3
ag3
ag3
ag3
aa(lp358
g3
ag160
ag3
ag3
aa(lp359
g3
ag3
ag3
ag3
aa(lp360
g3
ag3
ag8
ag3
aa(lp361
g3
ag3
ag3
ag3
aa(lp362
g3
ag184
ag3
ag3
aa(lp363
g3
ag3
ag3
ag3
aa(lp364
g3
ag5
ag3
ag3
aa(lp365
g3
ag3
ag3
ag3
aa(lp366
g3
ag184
ag3
ag3
aa(lp367
g3
ag3
ag3
ag3
aa(lp368
g3
ag3
ag8
ag3
aa(lp369
g3
ag3
ag3
ag3
aa(lp370
g3
ag160
ag3
ag3
aa(lp371
g3
ag3
ag3
ag3
aa(lp372
g3
ag3
ag8
ag3
aa(lp373
g3
ag3
ag3
ag3
aa(lp374
g8
ag3
ag3
ag3
aa(lp375
g3
ag3
ag3
ag3
aa(lp376
g3
ag3
ag8
ag3
aa(lp377
g3
ag3
ag3
ag3
aa(lp378
g3
ag184
ag3
ag3
aa(lp379
g3
ag3
ag3
ag3
aa(lp380
g3
ag5
ag3
ag3
aa(lp381
g3
ag3
ag3
ag3
aa(lp382
g3
ag184
ag3
ag3
aa(lp383
g3
ag3
ag3
ag3
aa(lp384
g3
ag3
ag8
ag3
aa(lp385
g3
ag3
ag3
ag3
aa(lp386
g3
ag160
ag3
ag3
aa(lp387
g3
ag3
ag3
ag3
aa(lp388
g3
ag3
ag8
ag3
aa(lp389
g3
ag3
ag3
ag3
aaa(lp390
(lp391
g3
ag3
ag3
ag3
aa(lp392
g3
ag3
ag5
ag3
aa(lp393
g3
ag3
ag3
ag3
aa(lp394
g3
ag5
ag3
ag3
aa(lp395
g3
ag3
ag3
ag3
aa(lp396
g5
ag3
ag3
ag3
aa(lp397
g3
ag3
ag3
ag3
aa(lp398
g8
ag3
ag3
ag3
aa(lp399
g3
ag3
ag3
ag3
aa(lp400
g45
ag3
ag3
ag3
aa(lp401
g3
ag3
ag3
ag3
aa(lp402
g5
ag3
ag3
ag3
aa(lp403
g3
ag3
ag3
ag3
aa(lp404
g3
ag5
ag3
ag3
aa(lp405
g3
ag3
ag3
ag3
aa(lp406
g3
ag3
ag8
ag3
aa(lp407
g3
ag3
ag3
ag3
aa(lp408
g3
ag3
ag5
ag3
aa(lp409
g3
ag3
ag3
ag3
aa(lp410
g3
ag5
ag3
ag3
aa(lp411
g3
ag3
ag3
ag3
aa(lp412
g5
ag3
ag3
ag3
aa(lp413
g3
ag3
ag3
ag3
aa(lp414
g8
ag3
ag3
ag3
aa(lp415
g3
ag3
ag3
ag3
aa(lp416
g45
ag3
ag3
ag3
aa(lp417
g3
ag3
ag3
ag3
aa(lp418
g5
ag3
ag3
ag3
aa(lp419
g3
ag3
ag3
ag3
aa(lp420
S'-'
p421
aS'2'
p422
ag421
ag421
aa(lp423
g3
ag3
ag3
ag3
aa(lp424
g421
aS'0'
p425
ag421
ag421
aa(lp426
g3
ag3
ag3
ag3
aaa(lp427
(lp428
g3
ag3
ag3
ag3
aa(lp429
g3
ag3
ag45
ag3
aa(lp430
g3
ag3
ag3
ag3
aa(lp431
g3
ag8
ag3
ag3
aa(lp432
g3
ag3
ag3
ag3
aa(lp433
g3
ag3
ag45
ag3
aa(lp434
g3
ag3
ag3
ag3
aa(lp435
g3
ag8
ag3
ag3
aa(lp436
g3
ag3
ag3
ag3
aa(lp437
g5
ag3
ag3
ag3
aa(lp438
g3
ag3
ag3
ag3
aa(lp439
g3
ag8
ag3
ag3
aa(lp440
g3
ag3
ag3
ag3
aa(lp441
g5
ag3
ag3
ag3
aa(lp442
g3
ag3
ag3
ag3
aa(lp443
g3
ag8
ag3
ag3
aa(lp444
g3
ag3
ag3
ag3
aa(lp445
g3
ag3
ag45
ag3
aa(lp446
g3
ag3
ag3
ag3
aa(lp447
g3
ag8
ag3
ag3
aa(lp448
g3
ag3
ag3
ag3
aa(lp449
g3
ag3
ag45
ag3
aa(lp450
g3
ag3
ag3
ag3
aa(lp451
g3
ag8
ag3
ag3
aa(lp452
g3
ag3
ag3
ag3
aa(lp453
g5
ag3
ag3
ag3
aa(lp454
g3
ag3
ag3
ag3
aa(lp455
g3
ag8
ag3
ag3
aa(lp456
g3
ag3
ag3
ag3
aa(lp457
g5
ag3
ag3
ag3
aa(lp458
g3
ag3
ag3
ag3
aa(lp459
g3
ag8
ag3
ag3
aa(lp460
g3
ag3
ag3
ag3
aaa(lp461
(lp462
g3
ag3
ag3
ag3
aa(lp463
S'-'
p464
aS'3'
p465
ag464
ag464
aa(lp466
g464
ag464
ag464
ag464
aa(lp467
g464
aS'2'
p468
ag464
ag464
aa(lp469
g464
ag464
ag464
ag464
aa(lp470
g464
aS'0'
p471
ag464
ag464
aa(lp472
g464
ag464
ag464
ag464
aa(lp473
g464
ag465
ag464
ag464
aa(lp474
g464
ag464
ag464
ag464
aa(lp475
g464
ag468
ag464
ag464
aa(lp476
g464
ag464
ag464
ag464
aa(lp477
g464
ag465
ag464
ag464
aa(lp478
g464
ag464
ag464
ag464
aa(lp479
g471
ag464
ag464
ag464
aa(lp480
g464
ag464
ag464
ag464
aa(lp481
g464
ag468
ag464
ag464
aa(lp482
g464
ag464
ag464
ag464
aa(lp483
g464
ag465
ag464
ag464
aa(lp484
g464
ag464
ag464
ag464
aa(lp485
g464
ag468
ag464
ag464
aa(lp486
g464
ag464
ag464
ag464
aa(lp487
g464
ag471
ag464
ag464
aa(lp488
g464
ag464
ag464
ag464
aa(lp489
g464
ag464
ag468
ag464
aa(lp490
g464
ag464
ag464
ag464
aa(lp491
g465
ag464
ag464
ag464
aa(lp492
g464
ag464
ag464
ag464
aa(lp493
g468
ag464
ag464
ag464
aa(lp494
g464
ag464
ag464
ag464
aa(lp495
g471
ag464
ag464
ag464
aa(lp496
g464
ag464
ag464
ag464
aa(lp497
S'-'
p498
ag498
aS'7'
p499
ag498
aa(lp500
g464
ag464
ag464
ag464
aaa(lp501
(lp502
g464
ag464
ag464
ag464
aa(lp503
g498
ag498
aS'6'
p504
ag498
aa(lp505
g464
ag464
ag464
ag464
aa(lp506
g498
aS'8'
p507
ag498
ag498
aa(lp508
g464
ag464
ag464
ag464
aa(lp509
S'5'
p510
ag464
ag464
ag464
aa(lp511
g464
ag464
ag464
ag464
aa(lp512
g498
ag507
ag498
ag498
aa(lp513
g464
ag464
ag464
ag464
aa(lp514
g510
ag464
ag464
ag464
aa(lp515
g464
ag464
ag464
ag464
aa(lp516
g498
ag507
ag498
ag498
aa(lp517
g464
ag464
ag464
ag464
aa(lp518
g510
ag464
ag464
ag464
aa(lp519
g464
ag464
ag464
ag464
aa(lp520
g498
ag507
ag498
ag498
aa(lp521
g464
ag464
ag464
ag464
aa(lp522
g498
ag498
ag504
ag498
aa(lp523
g464
ag464
ag464
ag464
aa(lp524
g498
ag507
ag498
ag498
aa(lp525
g464
ag464
ag464
ag464
aa(lp526
g510
ag464
ag464
ag464
aa(lp527
g464
ag464
ag464
ag464
aa(lp528
g498
ag507
ag498
ag498
aa(lp529
g464
ag464
ag464
ag464
aa(lp530
g510
ag464
ag464
ag464
aa(lp531
g464
ag464
ag464
ag464
aa(lp532
g498
ag507
ag498
ag498
aa(lp533
g464
ag464
ag464
ag464
aa(lp534
g510
ag464
ag464
ag464
aa(lp535
g464
ag464
ag464
ag464
aa(lp536
g498
ag507
ag498
ag498
aa(lp537
g464
ag464
ag464
ag464
aaa(lp538
(lp539
g464
ag464
ag464
ag464
aa(lp540
g464
ag464
ag464
ag471
aa(lp541
g464
ag464
ag464
ag464
aa(lp542
g464
aS'7'
p543
ag464
ag464
aa(lp544
g464
ag464
ag464
ag464
aa(lp545
S'8'
p546
ag464
ag464
ag464
aa(lp547
g464
ag464
ag464
ag464
aa(lp548
g543
ag464
ag464
ag464
aa(lp549
g464
ag464
ag464
ag464
aa(lp550
g546
ag464
ag464
ag464
aa(lp551
g464
ag464
ag464
ag464
aa(lp552
g464
ag543
ag464
ag464
aa(lp553
g464
ag464
ag464
ag464
aa(lp554
g546
ag464
ag464
ag464
aa(lp555
g464
ag464
ag464
ag464
aa(lp556
g464
ag543
ag464
ag464
aa(lp557
g464
ag464
ag464
ag464
aa(lp558
g464
ag464
ag464
ag471
aa(lp559
g464
ag464
ag464
ag464
aa(lp560
g464
ag543
ag464
ag464
aa(lp561
g464
ag464
ag464
ag464
aa(lp562
g546
ag464
ag464
ag464
aa(lp563
g464
ag464
ag464
ag464
aa(lp564
g543
ag464
ag464
ag464
aa(lp565
g464
ag464
ag464
ag464
aa(lp566
g546
ag464
ag464
ag464
aa(lp567
g464
ag464
ag464
ag464
aa(lp568
g464
ag543
ag464
ag464
aa(lp569
g464
ag464
ag464
ag464
aa(lp570
g546
ag464
ag464
ag464
aa(lp571
g464
ag464
ag464
ag464
aa(lp572
g464
ag543
ag464
ag464
aa(lp573
g464
ag464
ag464
ag464
aaa(lp574
(lp575
g464
ag464
ag464
ag464
aa(lp576
g464
ag464
ag464
ag471
aa(lp577
g464
ag464
ag464
ag464
aa(lp578
g464
ag546
ag464
ag464
aa(lp579
g464
ag464
ag464
ag464
aa(lp580
g543
ag464
ag464
ag464
aa(lp581
g464
ag464
ag464
ag464
aa(lp582
S'--'
p583
aS'10'
p584
aS'--'
p585
aS'--'
p586
aa(lp587
g464
ag464
ag464
ag464
aa(lp588
g543
ag464
ag464
ag464
aa(lp589
g464
ag464
ag464
ag464
aa(lp590
g464
ag546
ag464
ag464
aa(lp591
g464
ag464
ag464
ag464
aa(lp592
g543
ag464
ag464
ag464
aa(lp593
g464
ag464
ag464
ag464
aa(lp594
g464
ag546
ag464
ag464
aa(lp595
g464
ag464
ag464
ag464
aa(lp596
g464
ag464
ag464
ag471
aa(lp597
g464
ag464
ag464
ag464
aa(lp598
g464
ag546
ag464
ag464
aa(lp599
g464
ag464
ag464
ag464
aa(lp600
g543
ag464
ag464
ag464
aa(lp601
g464
ag464
ag464
ag464
aa(lp602
S'--'
p603
aS'10'
p604
aS'--'
p605
aS'--'
p606
aa(lp607
g464
ag464
ag464
ag464
aa(lp608
g543
ag464
ag464
ag464
aa(lp609
g464
ag464
ag464
ag464
aa(lp610
g464
ag546
ag464
ag464
aa(lp611
g464
ag464
ag464
ag464
aa(lp612
g543
ag464
ag464
ag464
aa(lp613
g464
ag464
ag464
ag464
aa(lp614
g464
ag546
ag464
ag464
aa(lp615
g464
ag464
ag464
ag464
aaa(lp616
(lp617
g464
ag464
ag464
ag464
aa(lp618
g464
ag464
ag464
ag471
aa(lp619
g464
ag464
ag464
ag464
aa(lp620
S'--'
p621
aS'14'
p622
aS'--'
p623
aS'--'
p624
aa(lp625
g464
ag464
ag464
ag464
aa(lp626
S'15'
p627
aS'--'
p628
aS'--'
p629
aS'--'
p630
aa(lp631
g464
ag464
ag464
ag464
aa(lp632
S'14'
p633
aS'--'
p634
aS'--'
p635
aS'--'
p636
aa(lp637
g464
ag464
ag464
ag464
aa(lp638
S'15'
p639
aS'--'
p640
aS'--'
p641
aS'--'
p642
aa(lp643
g464
ag464
ag464
ag464
aa(lp644
S'--'
p645
aS'14'
p646
aS'--'
p647
aS'--'
p648
aa(lp649
g464
ag464
ag464
ag464
aa(lp650
S'15'
p651
aS'--'
p652
aS'--'
p653
aS'--'
p654
aa(lp655
g464
ag464
ag464
ag464
aa(lp656
S'--'
p657
aS'14'
p658
aS'--'
p659
aS'--'
p660
aa(lp661
g464
ag464
ag464
ag464
aa(lp662
g464
ag464
ag464
ag471
aa(lp663
g464
ag464
ag464
ag464
aa(lp664
S'--'
p665
aS'14'
p666
aS'--'
p667
aS'--'
p668
aa(lp669
g464
ag464
ag464
ag464
aa(lp670
S'15'
p671
aS'--'
p672
aS'--'
p673
aS'--'
p674
aa(lp675
g464
ag464
ag464
ag464
aa(lp676
S'14'
p677
aS'--'
p678
aS'--'
p679
aS'--'
p680
aa(lp681
g464
ag464
ag464
ag464
aa(lp682
S'15'
p683
aS'--'
p684
aS'--'
p685
aS'--'
p686
aa(lp687
g464
ag464
ag464
ag464
aa(lp688
S'--'
p689
aS'14'
p690
aS'--'
p691
aS'--'
p692
aa(lp693
g464
ag464
ag464
ag464
aa(lp694
S'15'
p695
aS'--'
p696
aS'--'
p697
aS'--'
p698
aa(lp699
g464
ag464
ag464
ag464
aa(lp700
S'--'
p701
aS'14'
p702
aS'--'
p703
aS'--'
p704
aa(lp705
g464
ag464
ag464
ag464
aaa(lp706
(lp707
g464
ag464
ag464
ag464
aa(lp708
g464
ag464
ag464
ag471
aa(lp709
g464
ag464
ag464
ag464
aa(lp710
S'--'
p711
aS'10'
p712
aS'--'
p713
aS'--'
p714
aa(lp715
g464
ag464
ag464
ag464
aa(lp716
S'14'
p717
aS'--'
p718
aS'--'
p719
aS'--'
p720
aa(lp721
g464
ag464
ag464
ag464
aa(lp722
S'12'
p723
aS'--'
p724
aS'--'
p725
aS'--'
p726
aa(lp727
g464
ag464
ag464
ag464
aa(lp728
S'14'
p729
aS'--'
p730
aS'--'
p731
aS'--'
p732
aa(lp733
g464
ag464
ag464
ag464
aa(lp734
S'10'
p735
aS'--'
p736
aS'--'
p737
aS'--'
p738
aa(lp739
g464
ag464
ag464
ag464
aa(lp740
S'9'
p741
ag464
ag464
ag464
aa(lp742
g464
ag464
ag464
ag464
aa(lp743
g543
ag464
ag464
ag464
aa(lp744
g464
ag464
ag464
ag464
aa(lp745
S'--'
p746
aS'10'
p747
aS'--'
p748
aS'--'
p749
aa(lp750
g464
ag464
ag464
ag464
aa(lp751
g464
ag546
ag464
ag464
aa(lp752
g464
ag464
ag464
ag464
aa(lp753
g464
ag543
ag464
ag464
aa(lp754
g464
ag464
ag464
ag464
aa(lp755
g471
ag464
ag464
ag464
aa(lp756
g464
ag464
ag464
ag464
aa(lp757
g464
ag465
ag464
ag464
aa(lp758
g464
ag464
ag464
ag464
aa(lp759
g464
ag468
ag464
ag464
aa(lp760
g464
ag464
ag464
ag464
aa(lp761
g464
ag471
ag464
ag464
aa(lp762
g464
ag464
ag464
ag464
aa(lp763
g464
ag464
ag468
ag464
aa(lp764
g464
ag464
ag464
ag464
aaa(lp765
(lp766
g464
ag464
ag464
ag464
aa(lp767
g464
ag464
aS'1'
p768
ag464
aa(lp769
g464
ag464
ag464
ag464
aa(lp770
g471
ag464
ag464
ag464
aa(lp771
g464
ag464
ag464
ag464
aa(lp772
g464
ag471
ag464
ag464
aa(lp773
g464
ag464
ag464
ag464
aa(lp774
g464
ag468
ag464
ag464
aa(lp775
g464
ag464
ag464
ag464
aa(lp776
g464
ag465
ag464
ag464
aa(lp777
g464
ag464
ag464
ag464
aa(lp778
g464
ag471
ag464
ag464
aa(lp779
g464
ag464
ag464
ag464
aa(lp780
g464
ag468
ag464
ag464
aa(lp781
g464
ag464
ag464
ag464
aa(lp782
g464
ag465
ag464
ag464
aa(lp783
g464
ag464
ag464
ag464
aa(lp784
g464
ag464
ag768
ag464
aa(lp785
g464
ag464
ag464
ag464
aa(lp786
g471
ag464
ag464
ag464
aa(lp787
g464
ag464
ag464
ag464
aa(lp788
g464
ag471
ag464
ag464
aa(lp789
g464
ag464
ag464
ag464
aa(lp790
g464
ag468
ag464
ag464
aa(lp791
g464
ag464
ag464
ag464
aa(lp792
g464
ag465
ag464
ag464
aa(lp793
g464
ag464
ag464
ag464
aa(lp794
g464
ag471
ag464
ag464
aa(lp795
g464
ag464
ag464
ag464
aa(lp796
g464
ag468
ag464
ag464
aa(lp797
g464
ag464
ag464
ag464
aa(lp798
g464
ag465
ag464
ag464
aa(lp799
g464
ag464
ag464
ag464
aaa(lp800
(lp801
g464
ag464
ag464
ag464
aa(lp802
g464
ag464
ag471
ag464
aa(lp803
g464
ag464
ag464
ag464
aa(lp804
g471
ag464
ag464
ag464
aa(lp805
g464
ag464
ag464
ag464
aa(lp806
g464
ag464
ag468
ag464
aa(lp807
g464
ag464
ag464
ag464
aa(lp808
g464
ag471
ag464
ag464
aa(lp809
g464
ag464
ag464
ag464
aa(lp810
g464
ag468
ag464
ag464
aa(lp811
g464
ag464
ag464
ag464
aa(lp812
g464
ag464
ag468
ag464
aa(lp813
g464
ag464
ag464
ag464
aa(lp814
g464
ag471
ag464
ag464
aa(lp815
g464
ag464
ag464
ag464
aa(lp816
g464
ag468
ag464
ag464
aa(lp817
g464
ag464
ag464
ag464
aa(lp818
g464
ag464
ag471
ag464
aa(lp819
g464
ag464
ag464
ag464
aa(lp820
g471
ag464
ag464
ag464
aa(lp821
g464
ag464
ag464
ag464
aa(lp822
g464
ag464
ag468
ag464
aa(lp823
g464
ag464
ag464
ag464
aa(lp824
g464
ag471
ag464
ag464
aa(lp825
g464
ag464
ag464
ag464
aa(lp826
g464
ag468
ag464
ag464
aa(lp827
g464
ag464
ag464
ag464
aa(lp828
g464
ag464
ag468
ag464
aa(lp829
g464
ag464
ag464
ag464
aa(lp830
g464
ag471
ag464
ag464
aa(lp831
g464
ag464
ag464
ag464
aa(lp832
g464
ag468
ag464
ag464
aa(lp833
g464
ag464
ag464
ag464
aaa(lp834
(lp835
g464
ag464
ag464
ag464
aa(lp836
g464
ag464
ag471
ag464
aa(lp837
g464
ag464
ag464
ag464
aa(lp838
g471
ag464
ag464
ag464
aa(lp839
g464
ag464
ag464
ag464
aa(lp840
g464
ag464
ag468
ag464
aa(lp841
g464
ag464
ag464
ag464
aa(lp842
g464
ag468
ag464
ag464
aa(lp843
g464
ag464
ag464
ag464
aa(lp844
g471
ag464
ag464
ag464
aa(lp845
g464
ag464
ag464
ag464
aa(lp846
S'4'
p847
ag464
ag464
ag464
aa(lp848
g464
ag464
ag464
ag464
aa(lp849
g510
ag464
ag464
ag464
aa(lp850
g464
ag464
ag464
ag464
aa(lp851
g464
ag464
ag464
ag464
aa(lp852
g464
ag464
ag464
ag464
aa(lp853
g464
ag464
ag464
ag464
aa(lp854
g464
ag464
ag464
ag464
aa(lp855
g498
ag498
ag498
aS'2'
p856
aa(lp857
g464
ag464
ag464
ag464
aa(lp858
g498
ag498
ag498
aS'4'
p859
aa(lp860
g464
ag464
ag464
ag464
aa(lp861
g464
ag464
ag471
ag464
aa(lp862
g464
ag464
ag464
ag464
aa(lp863
g464
ag464
ag468
ag464
aa(lp864
g464
ag464
ag464
ag464
aa(lp865
g464
ag471
ag464
ag464
aa(lp866
g464
ag464
ag464
ag464
aa(lp867
g464
ag468
ag464
ag464
aa(lp868
g464
ag464
ag464
ag464
aa(lp869
g464
ag465
ag464
ag464
aa(lp870
g464
ag464
ag464
ag464
aaa(lp871
(lp872
g464
ag464
ag464
ag464
aa(lp873
g471
ag464
ag464
ag464
aa(lp874
g464
ag464
ag464
ag464
aa(lp875
g464
ag468
ag464
ag464
aa(lp876
g464
ag464
ag464
ag464
aa(lp877
g464
ag464
ag468
ag464
aa(lp878
g464
ag464
ag464
ag464
aa(lp879
g464
ag471
ag464
ag464
aa(lp880
g464
ag464
ag464
ag464
aa(lp881
g464
ag468
ag464
ag464
aa(lp882
g464
ag464
ag464
ag464
aa(lp883
g464
ag465
ag464
ag464
aa(lp884
g464
ag464
ag464
ag464
aa(lp885
g471
ag464
ag464
ag464
aa(lp886
g464
ag464
ag464
ag464
aa(lp887
g468
ag464
ag464
ag464
aa(lp888
g464
ag464
ag464
ag464
aa(lp889
g465
ag464
ag464
ag464
aa(lp890
g464
ag464
ag464
ag464
aa(lp891
g471
ag464
ag464
ag464
aa(lp892
g464
ag464
ag464
ag464
aa(lp893
g464
ag468
ag464
ag464
aa(lp894
g464
ag464
ag464
ag464
aa(lp895
g464
ag465
ag464
ag464
aa(lp896
g464
ag464
ag464
ag464
aa(lp897
g471
ag464
ag464
ag464
aa(lp898
g464
ag464
ag464
ag464
aa(lp899
g468
ag464
ag464
ag464
aa(lp900
g464
ag464
ag464
ag464
aa(lp901
g465
ag464
ag464
ag464
aa(lp902
g464
ag464
ag464
ag464
aa(lp903
g510
ag464
ag464
ag464
aa(lp904
g464
ag464
ag464
ag464
aaa(lp905
(lp906
g464
ag464
ag464
ag464
aa(lp907
S'6'
p908
ag464
ag464
ag464
aa(lp909
g464
ag464
ag464
ag464
aa(lp910
S'5'
p911
ag498
ag498
ag498
aa(lp912
g464
ag464
ag464
ag464
aa(lp913
g847
ag464
ag464
ag464
aa(lp914
g464
ag464
ag464
ag464
aa(lp915
g510
ag464
ag464
ag464
aa(lp916
g464
ag464
ag464
ag464
aa(lp917
g510
ag464
ag464
ag464
aa(lp918
g464
ag464
ag464
ag464
aa(lp919
g465
ag464
ag464
ag464
aa(lp920
g464
ag464
ag464
ag464
aa(lp921
g468
ag464
ag464
ag464
aa(lp922
g464
ag464
ag464
ag464
aa(lp923
g465
ag464
ag464
ag464
aa(lp924
g464
ag464
ag464
ag464
aa(lp925
g465
ag464
ag464
ag464
aa(lp926
g464
ag464
ag464
ag464
aa(lp927
g471
ag464
ag464
ag464
aa(lp928
g464
ag464
ag464
ag464
aa(lp929
g464
ag468
ag464
ag464
aa(lp930
g464
ag464
ag464
ag464
aa(lp931
g464
ag471
ag464
ag464
aa(lp932
g464
ag464
ag464
ag464
aa(lp933
g464
ag464
ag468
ag464
aa(lp934
g464
ag464
ag464
ag464
aa(lp935
g498
ag498
ag498
ag856
aa(lp936
g464
ag464
ag464
ag464
aa(lp937
g498
ag498
ag498
ag859
aa(lp938
g464
ag464
ag464
ag464
aa(lp939
g498
ag498
aS'0'
p940
ag498
aa(lp941
g464
ag464
ag464
ag464
aaa(lp942
(lp943
g464
ag464
ag464
ag464
aa(lp944
g464
ag464
ag468
ag464
aa(lp945
g464
ag464
ag464
ag464
aa(lp946
g498
ag498
ag856
ag498
aa(lp947
g464
ag464
ag464
ag464
aa(lp948
g464
ag464
ag468
ag464
aa(lp949
g464
ag464
ag464
ag464
aa(lp950
g464
ag468
ag464
ag464
aa(lp951
g464
ag464
ag464
ag464
aa(lp952
g471
ag464
ag464
ag464
aa(lp953
g464
ag464
ag464
ag464
aa(lp954
g468
ag464
ag464
ag464
aa(lp955
g464
ag464
ag464
ag464
aa(lp956
g465
ag464
ag464
ag464
aa(lp957
g464
ag464
ag464
ag464
aa(lp958
g471
ag464
ag464
ag464
aa(lp959
g464
ag464
ag464
ag464
aa(lp960
g468
ag464
ag464
ag464
aa(lp961
g464
ag464
ag464
ag464
aa(lp962
g464
ag465
ag464
ag464
aa(lp963
g464
ag464
ag464
ag464
aa(lp964
g464
ag464
ag468
ag464
aa(lp965
g464
ag464
ag464
ag464
aa(lp966
g464
ag464
ag471
ag464
aa(lp967
g464
ag464
ag464
ag464
aa(lp968
g498
ag498
ag498
ag859
aa(lp969
g464
ag464
ag464
ag464
aa(lp970
g498
ag498
ag498
ag940
aa(lp971
g464
ag464
ag464
ag464
aa(lp972
g498
ag498
ag498
ag856
aa(lp973
g464
ag464
ag464
ag464
aa(lp974
g498
ag498
ag498
ag859
aa(lp975
g464
ag464
ag464
ag464
aaa(lp976
(lp977
g464
ag464
ag464
ag464
aa(lp978
g498
ag498
ag856
ag498
aa(lp979
g464
ag464
ag464
ag464
aa(lp980
g498
ag498
ag498
ag940
aa(lp981
g464
ag464
ag464
ag464
aa(lp982
g498
ag498
ag498
ag859
aa(lp983
g464
ag464
ag464
ag464
aa(lp984
g464
ag464
ag468
ag464
aa(lp985
g464
ag464
ag464
ag464
aa(lp986
g464
ag465
ag464
ag464
aa(lp987
g464
ag464
ag464
ag464
aa(lp988
g471
ag464
ag464
ag464
aa(lp989
g464
ag464
ag464
ag464
aa(lp990
g468
ag464
ag464
ag464
aa(lp991
g464
ag464
ag464
ag464
aa(lp992
g464
ag465
ag464
ag464
aa(lp993
g464
ag464
ag464
ag464
aa(lp994
g847
ag464
ag464
ag464
aa(lp995
g464
ag464
ag464
ag464
aa(lp996
g768
ag464
ag464
ag464
aa(lp997
g464
ag464
ag464
ag464
aa(lp998
g471
ag464
ag464
ag464
aa(lp999
g464
ag464
ag464
ag464
aa(lp1000
g768
ag464
ag464
ag464
aa(lp1001
g464
ag464
ag464
ag464
aa(lp1002
g768
ag464
ag464
ag464
aa(lp1003
g464
ag464
ag464
ag464
aa(lp1004
g471
ag464
ag464
ag464
aa(lp1005
g464
ag464
ag464
ag464
aa(lp1006
g464
ag847
ag464
ag464
aa(lp1007
g464
ag464
ag464
ag464
aa(lp1008
g471
ag464
ag464
ag464
aa(lp1009
g464
ag464
ag464
ag464
aaa(lp1010
(lp1011
g464
ag464
ag464
ag464
aa(lp1012
g471
ag464
ag464
ag464
aa(lp1013
g464
ag464
ag464
ag464
aa(lp1014
g464
ag465
ag464
ag464
aa(lp1015
g464
ag464
ag464
ag464
aa(lp1016
g464
ag468
ag464
ag464
aa(lp1017
g464
ag464
ag464
ag464
aa(lp1018
g464
ag465
ag464
ag464
aa(lp1019
g464
ag464
ag464
ag464
aa(lp1020
g464
ag465
ag464
ag464
aa(lp1021
g464
ag464
ag464
ag464
aa(lp1022
g464
ag471
ag464
ag464
aa(lp1023
g464
ag464
ag464
ag464
aa(lp1024
g464
ag464
ag768
ag464
aa(lp1025
g464
ag464
ag464
ag464
aa(lp1026
g498
ag498
ag498
ag859
aa(lp1027
g464
ag464
ag464
ag464
aa(lp1028
g498
ag498
ag498
ag856
aa(lp1029
g464
ag464
ag464
ag464
aa(lp1030
g464
ag464
ag768
ag464
aa(lp1031
g464
ag464
ag464
ag464
aa(lp1032
g464
ag471
ag464
ag464
aa(lp1033
g464
ag464
ag464
ag464
aa(lp1034
g464
ag465
ag464
ag464
aa(lp1035
g464
ag464
ag464
ag464
aa(lp1036
g471
ag464
ag464
ag464
aa(lp1037
g464
ag464
ag464
ag464
aa(lp1038
g847
ag464
ag464
ag464
aa(lp1039
g464
ag464
ag464
ag464
aa(lp1040
g510
ag464
ag464
ag464
aa(lp1041
g464
ag464
ag464
ag464
aa(lp1042
g847
ag464
ag464
ag464
aa(lp1043
g464
ag464
ag464
ag464
aaa(lp1044
(lp1045
g464
ag464
ag464
ag464
aa(lp1046
g510
ag464
ag464
ag464
aa(lp1047
g464
ag464
ag464
ag464
aa(lp1048
g471
ag464
ag464
ag464
aa(lp1049
g464
ag464
ag464
ag464
aa(lp1050
g464
ag468
ag464
ag464
aa(lp1051
g464
ag464
ag464
ag464
aa(lp1052
g464
ag471
ag464
ag464
aa(lp1053
g464
ag464
ag464
ag464
aa(lp1054
g464
ag468
ag464
ag464
aa(lp1055
g464
ag464
ag464
ag464
aa(lp1056
g471
ag464
ag464
ag464
aa(lp1057
g464
ag464
ag464
ag464
aa(lp1058
g464
ag464
ag468
ag464
aa(lp1059
g464
ag464
ag464
ag464
aa(lp1060
g464
ag468
ag464
ag464
aa(lp1061
g464
ag464
ag464
ag464
aa(lp1062
g471
ag464
ag464
ag464
aa(lp1063
g464
ag464
ag464
ag464
aa(lp1064
g510
ag464
ag464
ag464
aa(lp1065
g464
ag464
ag464
ag464
aa(lp1066
g847
ag464
ag464
ag464
aa(lp1067
g464
ag464
ag464
ag464
aa(lp1068
g468
ag464
ag464
ag464
aa(lp1069
g464
ag464
ag464
ag464
aa(lp1070
g471
ag464
ag464
ag464
aa(lp1071
g464
ag464
ag464
ag464
aa(lp1072
g464
ag465
ag464
ag464
aa(lp1073
g464
ag464
ag464
ag464
aa(lp1074
g464
ag468
ag464
ag464
aa(lp1075
g464
ag464
ag464
ag464
aa(lp1076
g464
ag471
ag464
ag464
aa(lp1077
g464
ag464
ag464
ag464
aaa(lp1078
(lp1079
g464
ag464
ag464
ag464
aa(lp1080
g464
ag464
ag468
ag464
aa(lp1081
g464
ag464
ag464
ag464
aa(lp1082
g464
ag464
ag464
ag464
aa(lp1083
g464
ag464
ag464
ag464
aa(lp1084
g465
ag464
ag464
ag464
aa(lp1085
g464
ag464
ag464
ag464
aa(lp1086
g468
ag464
ag464
ag464
aa(lp1087
g464
ag464
ag464
ag464
aa(lp1088
g471
ag464
ag464
ag464
aa(lp1089
g464
ag464
ag464
ag464
aa(lp1090
g464
ag465
ag464
ag464
aa(lp1091
g464
ag464
ag464
ag464
aa(lp1092
g464
ag468
ag464
ag464
aa(lp1093
g464
ag464
ag464
ag464
aa(lp1094
g464
ag471
ag464
ag464
aa(lp1095
g464
ag464
ag464
ag464
aa(lp1096
g464
ag464
ag468
ag464
aa(lp1097
g464
ag464
ag464
ag464
aa(lp1098
g465
ag464
ag464
ag464
aa(lp1099
g464
ag464
ag464
ag464
aa(lp1100
g468
ag464
ag464
ag464
aa(lp1101
g464
ag464
ag464
ag464
aa(lp1102
g471
ag464
ag464
ag464
aa(lp1103
g464
ag464
ag464
ag464
aa(lp1104
g464
ag465
ag464
ag464
aa(lp1105
g464
ag464
ag464
ag464
aa(lp1106
g464
ag468
ag464
ag464
aa(lp1107
g464
ag464
ag464
ag464
aa(lp1108
g464
ag471
ag464
ag464
aa(lp1109
g464
ag464
ag464
ag464
aa(lp1110
g464
ag464
ag468
ag464
aa(lp1111
g464
ag464
ag464
ag464
aaa(lp1112
(lp1113
g464
ag464
ag464
ag464
aa(lp1114
g464
ag464
ag464
ag510
aa(lp1115
g464
ag464
ag464
ag464
aa(lp1116
g856
ag498
ag498
ag498
aa(lp1117
g464
ag464
ag464
ag464
aa(lp1118
g471
ag464
ag464
ag464
aa(lp1119
g464
ag464
ag464
ag464
aa(lp1120
g464
ag465
ag464
ag464
aa(lp1121
g464
ag464
ag464
ag464
aa(lp1122
g464
ag468
ag464
ag464
aa(lp1123
g464
ag464
ag464
ag464
aa(lp1124
g464
ag471
ag464
ag464
aa(lp1125
g464
ag464
ag464
ag464
aa(lp1126
g464
ag464
ag468
ag464
aa(lp1127
g464
ag464
ag464
ag464
aa(lp1128
g464
ag464
ag471
ag464
aa(lp1129
g464
ag464
ag464
ag464
aa(lp1130
g464
ag464
ag464
ag847
aa(lp1131
g464
ag464
ag464
ag464
aa(lp1132
g940
ag498
ag498
ag498
aa(lp1133
g464
ag464
ag464
ag464
aa(lp1134
g498
aS'3'
p1135
ag498
ag498
aa(lp1136
g464
ag464
ag464
ag464
aa(lp1137
g498
ag856
ag498
ag498
aa(lp1138
g464
ag464
ag464
ag464
aa(lp1139
g498
ag940
ag498
ag498
aa(lp1140
g464
ag464
ag464
ag464
aa(lp1141
g498
ag498
ag856
ag498
aa(lp1142
g464
ag464
ag464
ag464
aa(lp1143
g498
ag498
ag940
ag498
aa(lp1144
g464
ag464
ag464
ag464
aa(lp1145
g498
ag498
ag498
ag859
aa(lp1146
g464
ag464
ag464
ag464
aaa(lp1147
(lp1148
g464
ag464
ag464
ag464
aa(lp1149
g464
ag464
ag464
ag468
aa(lp1150
g464
ag464
ag464
ag464
aa(lp1151
g464
ag465
ag464
ag464
aa(lp1152
g464
ag464
ag464
ag464
aa(lp1153
g464
ag468
ag464
ag464
aa(lp1154
g464
ag464
ag464
ag464
aa(lp1155
g464
ag471
ag464
ag464
aa(lp1156
g464
ag464
ag464
ag464
aa(lp1157
g464
ag468
ag464
ag464
aa(lp1158
g464
ag464
ag464
ag464
aa(lp1159
g471
ag464
ag464
ag464
aa(lp1160
g464
ag464
ag464
ag464
aa(lp1161
g464
ag464
ag468
ag464
aa(lp1162
g464
ag464
ag464
ag464
aa(lp1163
g471
ag464
ag464
ag464
aa(lp1164
g464
ag464
ag464
ag464
aa(lp1165
g464
ag471
ag464
ag464
aa(lp1166
g464
ag464
ag464
ag464
aa(lp1167
g471
ag464
ag464
ag464
aa(lp1168
g464
ag464
ag464
ag464
aa(lp1169
g464
ag468
ag464
ag464
aa(lp1170
g464
ag464
ag464
ag464
aa(lp1171
g471
ag464
ag464
ag464
aa(lp1172
g464
ag464
ag464
ag464
aa(lp1173
g464
ag465
ag464
ag464
aa(lp1174
g464
ag464
ag464
ag464
aa(lp1175
g471
ag464
ag464
ag464
aa(lp1176
g464
ag464
ag464
ag464
aa(lp1177
g464
ag471
ag464
ag464
aa(lp1178
g464
ag464
ag464
ag464
aa(lp1179
g471
ag464
ag464
ag464
aa(lp1180
g464
ag464
ag464
ag464
aaa(lp1181
(lp1182
g464
ag464
ag464
ag464
aa(lp1183
g464
ag468
ag464
ag464
aa(lp1184
g464
ag464
ag464
ag464
aa(lp1185
g471
ag464
ag464
ag464
aa(lp1186
g464
ag464
ag464
ag464
aa(lp1187
g464
ag464
ag468
ag464
aa(lp1188
g464
ag464
ag464
ag464
aa(lp1189
g471
ag464
ag464
ag464
aa(lp1190
g464
ag464
ag464
ag464
aa(lp1191
g464
ag465
ag464
ag464
aa(lp1192
g464
ag464
ag464
ag464
aa(lp1193
g471
ag464
ag464
ag464
aa(lp1194
g464
ag464
ag464
ag464
aa(lp1195
g464
ag471
ag464
ag464
aa(lp1196
g464
ag464
ag464
ag464
aa(lp1197
g471
ag464
ag464
ag464
aa(lp1198
g464
ag464
ag464
ag464
aa(lp1199
g464
ag468
ag464
ag464
aa(lp1200
g464
ag464
ag464
ag464
aa(lp1201
g471
ag464
ag464
ag464
aa(lp1202
g464
ag464
ag464
ag464
aa(lp1203
g464
ag464
ag468
ag464
aa(lp1204
g464
ag464
ag464
ag464
aa(lp1205
g471
ag464
ag464
ag464
aa(lp1206
g464
ag464
ag464
ag464
aa(lp1207
g464
ag465
ag464
ag464
aa(lp1208
g464
ag464
ag464
ag464
aa(lp1209
g471
ag464
ag464
ag464
aa(lp1210
g464
ag464
ag464
ag464
aa(lp1211
g464
ag471
ag464
ag464
aa(lp1212
g464
ag464
ag464
ag464
aa(lp1213
g471
ag464
ag464
ag464
aa(lp1214
g464
ag464
ag464
ag464
aaa(lp1215
(lp1216
g464
ag464
ag464
ag464
aa(lp1217
g464
ag468
ag464
ag464
aa(lp1218
g464
ag464
ag464
ag464
aa(lp1219
g471
ag464
ag464
ag464
aa(lp1220
g464
ag464
ag464
ag464
aa(lp1221
g464
ag464
ag468
ag464
aa(lp1222
g464
ag464
ag464
ag464
aa(lp1223
g471
ag464
ag464
ag464
aa(lp1224
g464
ag464
ag464
ag464
aa(lp1225
g464
ag471
ag464
ag464
aa(lp1226
g464
ag464
ag464
ag464
aa(lp1227
g471
ag464
ag464
ag464
aa(lp1228
g464
ag464
ag464
ag464
aa(lp1229
g464
ag468
ag464
ag464
aa(lp1230
g464
ag464
ag464
ag464
aa(lp1231
g471
ag464
ag464
ag464
aa(lp1232
g464
ag464
ag464
ag464
aa(lp1233
g464
ag465
ag464
ag464
aa(lp1234
g464
ag464
ag464
ag464
aa(lp1235
g471
ag464
ag464
ag464
aa(lp1236
g464
ag464
ag464
ag464
aa(lp1237
g464
ag510
ag464
ag464
aa(lp1238
g464
ag464
ag464
ag464
aa(lp1239
g471
ag464
ag464
ag464
aa(lp1240
g464
ag464
ag464
ag464
aa(lp1241
g464
ag543
ag464
ag464
aa(lp1242
g464
ag464
ag464
ag464
aa(lp1243
g471
ag464
ag464
ag464
aa(lp1244
g464
ag464
ag464
ag464
aa(lp1245
g464
ag464
ag468
ag464
aa(lp1246
g464
ag464
ag464
ag464
aa(lp1247
g471
ag464
ag464
ag464
aa(lp1248
g464
ag464
ag464
ag464
aaa(lp1249
(lp1250
g464
ag464
ag464
ag464
aa(lp1251
g464
ag510
ag464
ag464
aa(lp1252
g464
ag464
ag464
ag464
aa(lp1253
g471
ag464
ag464
ag464
aa(lp1254
g464
ag464
ag464
ag464
aa(lp1255
g464
ag543
ag464
ag464
aa(lp1256
g464
ag464
ag464
ag464
aa(lp1257
g471
ag464
ag464
ag464
aa(lp1258
g464
ag464
ag464
ag464
aa(lp1259
g464
ag546
ag464
ag464
aa(lp1260
g464
ag464
ag464
ag464
aa(lp1261
g471
ag464
ag464
ag464
aa(lp1262
g464
ag464
ag464
ag464
aa(lp1263
g464
ag464
ag468
ag464
aa(lp1264
g464
ag464
ag464
ag464
aa(lp1265
g471
ag464
ag464
ag464
aa(lp1266
g464
ag464
ag464
ag464
aa(lp1267
g464
ag543
ag464
ag464
aa(lp1268
g464
ag464
ag464
ag464
aa(lp1269
g471
ag464
ag464
ag464
aa(lp1270
g464
ag464
ag464
ag464
aa(lp1271
g464
ag546
ag464
ag464
aa(lp1272
g464
ag464
ag464
ag464
aa(lp1273
g471
ag464
ag464
ag464
aa(lp1274
g464
ag464
ag464
ag464
aa(lp1275
S'--'
p1276
aS'10'
p1277
aS'--'
p1278
aS'--'
p1279
aa(lp1280
g464
ag464
ag464
ag464
aa(lp1281
g471
ag464
ag464
ag464
aa(lp1282
g464
ag464
ag464
ag464
aa(lp1283
g464
ag543
ag464
ag464
aa(lp1284
g464
ag464
ag464
ag464
aa(lp1285
g471
ag464
ag464
ag464
aa(lp1286
g464
ag464
ag464
ag464
aaa(lp1287
(lp1288
g464
ag464
ag464
ag464
aa(lp1289
g464
ag546
ag464
ag464
aa(lp1290
g464
ag464
ag464
ag464
aa(lp1291
g471
ag464
ag464
ag464
aa(lp1292
g464
ag464
ag464
ag464
aa(lp1293
g464
ag543
ag464
ag464
aa(lp1294
g464
ag464
ag464
ag464
aa(lp1295
g471
ag464
ag464
ag464
aa(lp1296
g464
ag464
ag464
ag464
aa(lp1297
g464
ag546
ag464
ag464
aa(lp1298
g464
ag464
ag464
ag464
aa(lp1299
g471
ag464
ag464
ag464
aa(lp1300
g464
ag464
ag464
ag464
aa(lp1301
g464
ag510
ag464
ag464
aa(lp1302
g464
ag464
ag464
ag464
aa(lp1303
g471
ag464
ag464
ag464
aa(lp1304
g464
ag464
ag464
ag464
aa(lp1305
g464
ag543
ag464
ag464
aa(lp1306
g464
ag464
ag464
ag464
aa(lp1307
g471
ag464
ag464
ag464
aa(lp1308
g464
ag464
ag464
ag464
aa(lp1309
g464
ag510
ag464
ag464
aa(lp1310
g464
ag464
ag464
ag464
aa(lp1311
g471
ag464
ag464
ag464
aa(lp1312
g464
ag464
ag464
ag464
aa(lp1313
g464
ag543
ag464
ag464
aa(lp1314
g464
ag464
ag464
ag464
aa(lp1315
g471
ag464
ag464
ag464
aa(lp1316
g464
ag464
ag464
ag464
aa(lp1317
g464
ag465
ag464
ag464
aa(lp1318
g464
ag464
ag464
ag464
aa(lp1319
g471
ag464
ag464
ag464
aa(lp1320
g464
ag464
ag464
ag464
aaa(lp1321
(lp1322
g464
ag464
ag464
ag464
aa(lp1323
g464
ag510
ag464
ag464
aa(lp1324
g464
ag464
ag464
ag464
aa(lp1325
g471
ag464
ag464
ag464
aa(lp1326
g464
ag464
ag464
ag464
aa(lp1327
g464
ag465
ag464
ag464
aa(lp1328
g464
ag464
ag464
ag464
aa(lp1329
g471
ag464
ag464
ag464
aa(lp1330
g464
ag464
ag464
ag464
aa(lp1331
g464
ag510
ag464
ag464
aa(lp1332
g464
ag464
ag464
ag464
aa(lp1333
g471
ag464
ag464
ag464
aa(lp1334
g464
ag464
ag464
ag464
aa(lp1335
g464
ag468
ag464
ag464
aa(lp1336
g464
ag464
ag464
ag464
aa(lp1337
g471
ag464
ag464
ag464
aa(lp1338
g464
ag464
ag464
ag464
aa(lp1339
g464
ag465
ag464
ag464
aa(lp1340
g464
ag464
ag464
ag464
aa(lp1341
g471
ag464
ag464
ag464
aa(lp1342
g464
ag464
ag464
ag464
aa(lp1343
g464
ag468
ag464
ag464
aa(lp1344
g464
ag464
ag464
ag464
aa(lp1345
g471
ag464
ag464
ag464
aa(lp1346
g464
ag464
ag464
ag464
aa(lp1347
g464
ag465
ag464
ag464
aa(lp1348
g464
ag464
ag464
ag464
aa(lp1349
g471
ag464
ag464
ag464
aa(lp1350
g464
ag464
ag464
ag464
aa(lp1351
g464
ag471
ag464
ag464
aa(lp1352
g464
ag464
ag464
ag464
aa(lp1353
g471
ag464
ag464
ag464
aa(lp1354
g464
ag464
ag464
ag464
aaa(lp1355
(lp1356
g464
ag464
ag464
ag464
aa(lp1357
g464
ag468
ag464
ag464
aa(lp1358
g464
ag464
ag464
ag464
aa(lp1359
g471
ag464
ag464
ag464
aa(lp1360
g464
ag464
ag464
ag464
aa(lp1361
g464
ag464
ag468
ag464
aa(lp1362
g464
ag464
ag464
ag464
aa(lp1363
g464
ag471
ag464
ag464
aa(lp1364
g464
ag464
ag464
ag464
aa(lp1365
g498
aS'1'
p1366
ag498
ag498
aa(lp1367
g464
ag464
ag464
ag464
aa(lp1368
g498
ag498
ag856
ag498
aa(lp1369
g464
ag464
ag464
ag464
aa(lp1370
g498
ag856
ag498
ag498
aa(lp1371
g498
ag498
ag498
ag498
aa(lp1372
g498
ag498
ag856
ag498
aa(lp1373
g464
ag464
ag464
ag464
aa(lp1374
g498
ag1135
ag498
ag498
aa(lp1375
g464
ag464
ag464
ag464
aa(lp1376
g498
ag498
ag856
ag498
aa(lp1377
g464
ag464
ag464
ag464
aa(lp1378
g498
ag859
ag498
ag498
aa(lp1379
g464
ag464
ag464
ag464
aa(lp1380
g498
ag498
ag856
ag498
aa(lp1381
g464
ag464
ag464
ag464
aa(lp1382
g940
ag498
ag498
ag498
aa(lp1383
g464
ag464
ag464
ag464
aa(lp1384
g498
ag498
ag856
ag498
aa(lp1385
g464
ag464
ag464
ag464
aa(lp1386
g1366
ag498
ag498
ag498
aa(lp1387
g464
ag464
ag464
ag464
aa(lp1388
g498
ag498
ag856
ag498
aa(lp1389
g498
ag498
ag498
ag498
aaa(lp1390
(lp1391
g464
ag464
ag464
ag464
aa(lp1392
g856
ag498
ag498
ag498
aa(lp1393
g464
ag464
ag464
ag464
aa(lp1394
g498
ag498
ag856
ag498
aa(lp1395
g464
ag464
ag464
ag464
aa(lp1396
g1135
ag498
ag498
ag498
aa(lp1397
g464
ag464
ag464
ag464
aa(lp1398
g498
ag498
ag856
ag498
aa(lp1399
g464
ag464
ag464
ag464
aa(lp1400
g859
ag498
ag498
ag498
aa(lp1401
g464
ag464
ag464
ag464
aa(lp1402
g498
ag498
ag856
ag498
aa(lp1403
g464
ag464
ag464
ag464
aa(lp1404
g911
ag498
ag498
ag498
aa(lp1405
g464
ag464
ag464
ag464
aa(lp1406
g498
ag498
ag856
ag498
aa(lp1407
g464
ag464
ag464
ag464
aa(lp1408
g504
ag498
ag498
ag498
aa(lp1409
g464
ag464
ag464
ag464
aa(lp1410
g498
ag498
ag856
ag498
aa(lp1411
g464
ag464
ag464
ag464
aa(lp1412
g543
ag464
ag464
ag464
aa(lp1413
g464
ag464
ag464
ag464
aa(lp1414
g464
ag464
ag464
ag543
aa(lp1415
g464
ag464
ag464
ag464
aa(lp1416
g546
ag464
ag464
ag464
aa(lp1417
g464
ag464
ag464
ag464
aa(lp1418
g464
ag464
ag464
ag543
aa(lp1419
g464
ag464
ag464
ag464
aa(lp1420
g741
ag464
ag464
ag464
aa(lp1421
g464
ag464
ag464
ag464
aa(lp1422
g464
ag464
ag464
ag543
aa(lp1423
g464
ag464
ag464
ag464
aaa(lp1424
(lp1425
g464
ag464
ag464
ag464
aa(lp1426
S'10'
p1427
aS'--'
p1428
aS'--'
p1429
aS'--'
p1430
aa(lp1431
g464
ag464
ag464
ag464
aa(lp1432
g464
ag543
ag464
ag464
aa(lp1433
g464
ag464
ag464
ag464
aa(lp1434
g464
ag464
ag464
ag543
aa(lp1435
g464
ag464
ag464
ag464
aa(lp1436
g464
ag543
ag464
ag464
aa(lp1437
g464
ag464
ag464
ag464
aa(lp1438
S'10'
p1439
aS'--'
p1440
aS'--'
p1441
aS'--'
p1442
aa(lp1443
g464
ag464
ag464
ag464
aa(lp1444
g464
ag543
ag464
ag464
aa(lp1445
g464
ag464
ag464
ag464
aa(lp1446
S'10'
p1447
aS'--'
p1448
aS'--'
p1449
aS'--'
p1450
aa(lp1451
g464
ag464
ag464
ag464
aa(lp1452
g464
ag543
ag464
ag464
aa(lp1453
g464
ag464
ag464
ag464
aa(lp1454
S'10'
p1455
aS'--'
p1456
aS'--'
p1457
aS'--'
p1458
aa(lp1459
g464
ag464
ag464
ag464
aa(lp1460
g464
ag543
ag464
ag464
aa(lp1461
g464
ag464
ag464
ag464
aa(lp1462
g464
ag464
ag464
ag543
aa(lp1463
g464
ag464
ag464
ag464
aa(lp1464
g464
ag543
ag464
ag464
aa(lp1465
g464
ag464
ag464
ag464
aa(lp1466
S'10'
p1467
aS'--'
p1468
aS'--'
p1469
aS'--'
p1470
aa(lp1471
g464
ag464
ag464
ag464
aa(lp1472
g464
ag543
ag464
ag464
aa(lp1473
g464
ag464
ag464
ag464
aa(lp1474
S'10'
p1475
aS'--'
p1476
aS'--'
p1477
aS'--'
p1478
aa(lp1479
g464
ag464
ag464
ag464
aa(lp1480
g464
ag543
ag464
ag464
aa(lp1481
g464
ag464
ag464
ag464
aaa(lp1482
(lp1483
g464
ag464
ag464
ag464
aa(lp1484
S'10'
p1485
aS'--'
p1486
aS'--'
p1487
aS'--'
p1488
aa(lp1489
g464
ag464
ag464
ag464
aa(lp1490
g464
ag464
ag741
ag464
aa(lp1491
g464
ag464
ag464
ag464
aa(lp1492
g464
ag464
ag464
ag543
aa(lp1493
g464
ag464
ag464
ag464
aa(lp1494
g464
ag464
ag741
ag464
aa(lp1495
g464
ag464
ag464
ag464
aa(lp1496
S'10'
p1497
aS'--'
p1498
aS'--'
p1499
aS'--'
p1500
aa(lp1501
g464
ag464
ag464
ag464
aa(lp1502
g464
ag464
ag741
ag464
aa(lp1503
g464
ag464
ag464
ag464
aa(lp1504
S'10'
p1505
aS'--'
p1506
aS'--'
p1507
aS'--'
p1508
aa(lp1509
g464
ag464
ag464
ag464
aa(lp1510
g464
ag464
ag741
ag464
aa(lp1511
g464
ag464
ag464
ag464
aa(lp1512
S'10'
p1513
aS'--'
p1514
aS'--'
p1515
aS'--'
p1516
aa(lp1517
g464
ag464
ag464
ag464
aa(lp1518
g464
ag464
ag741
ag464
aa(lp1519
g464
ag464
ag464
ag464
aa(lp1520
g464
ag464
ag464
ag543
aa(lp1521
g464
ag464
ag464
ag464
aa(lp1522
g464
ag464
ag741
ag464
aa(lp1523
g464
ag464
ag464
ag464
aa(lp1524
S'10'
p1525
aS'--'
p1526
aS'--'
p1527
aS'--'
p1528
aa(lp1529
g464
ag464
ag464
ag464
aa(lp1530
g464
ag464
ag741
ag464
aa(lp1531
g464
ag464
ag464
ag464
aa(lp1532
S'10'
p1533
aS'--'
p1534
aS'--'
p1535
aS'--'
p1536
aa(lp1537
g464
ag464
ag464
ag464
aa(lp1538
g464
ag464
ag741
ag464
aa(lp1539
g464
ag464
ag464
ag464
aaa(lp1540
(lp1541
g464
ag464
ag464
ag464
aa(lp1542
g741
ag464
ag464
ag464
aa(lp1543
g464
ag464
ag464
ag464
aa(lp1544
g464
ag546
ag464
ag464
aa(lp1545
g464
ag464
ag464
ag464
aa(lp1546
g464
ag464
ag464
ag543
aa(lp1547
g464
ag464
ag464
ag464
aa(lp1548
g464
ag546
ag464
ag464
aa(lp1549
g464
ag464
ag464
ag464
aa(lp1550
g741
ag464
ag464
ag464
aa(lp1551
g464
ag464
ag464
ag464
aa(lp1552
g464
ag546
ag464
ag464
aa(lp1553
g464
ag464
ag464
ag464
aa(lp1554
g741
ag464
ag464
ag464
aa(lp1555
g464
ag464
ag464
ag464
aa(lp1556
g464
ag546
ag464
ag464
aa(lp1557
g464
ag464
ag464
ag464
aa(lp1558
g741
ag464
ag464
ag464
aa(lp1559
g464
ag464
ag464
ag464
aa(lp1560
g464
ag546
ag464
ag464
aa(lp1561
g464
ag464
ag464
ag464
aa(lp1562
g464
ag464
ag464
ag543
aa(lp1563
g464
ag464
ag464
ag464
aa(lp1564
g464
ag546
ag464
ag464
aa(lp1565
g464
ag464
ag464
ag464
aa(lp1566
g741
ag464
ag464
ag464
aa(lp1567
g464
ag464
ag464
ag464
aa(lp1568
g464
ag546
ag464
ag464
aa(lp1569
g464
ag464
ag464
ag464
aa(lp1570
g741
ag464
ag464
ag464
aa(lp1571
g464
ag464
ag464
ag464
aa(lp1572
g464
ag546
ag464
ag464
aa(lp1573
g464
ag464
ag464
ag464
aaa(lp1574
(lp1575
g464
ag464
ag464
ag464
aa(lp1576
g498
ag498
ag498
ag940
aa(lp1577
g464
ag464
ag464
ag464
aa(lp1578
g464
ag464
ag464
ag464
aa(lp1579
g464
ag464
ag464
ag464
aa(lp1580
g464
ag464
ag464
ag464
aa(lp1581
g464
ag464
ag464
ag464
aa(lp1582
S'10'
p1583
aS'7-'
p1584
aS'7-'
p1585
aS'--'
p1586
aa(lp1587
g464
ag464
ag464
ag464
aa(lp1588
g464
ag464
ag464
ag464
aa(lp1589
g464
ag464
ag464
ag464
aa(lp1590
g464
ag464
ag464
ag464
aa(lp1591
g464
ag464
ag464
ag464
aaa.