(lp0
(lp1
(lp2
S'-'
p3
ag3
ag3
ag3
aa(lp4
g3
ag3
ag3
aS'0'
p5
aa(lp6
g3
ag3
ag3
ag3
aa(lp7
g3
ag3
aS'2'
p8
ag3
aa(lp9
g3
ag3
ag3
ag3
aa(lp10
g8
ag3
ag3
ag3
aa(lp11
g3
ag3
ag3
ag3
aa(lp12
g5
ag3
ag3
ag3
aa(lp13
g3
ag3
ag3
ag3
aa(lp14
g8
ag3
ag3
ag3
aa(lp15
g3
ag3
ag3
ag3
aa(lp16
g3
ag3
ag8
ag3
aa(lp17
g3
ag3
ag3
ag3
aa(lp18
g8
ag3
ag3
ag3
aa(lp19
g3
ag3
ag3
ag3
aa(lp20
g3
ag3
ag8
ag3
aa(lp21
g3
ag3
ag3
ag3
aa(lp22
g3
ag3
ag3
ag5
aa(lp23
g3
ag3
ag3
ag3
aa(lp24
g3
ag3
ag8
ag3
aa(lp25
g3
ag3
ag3
ag3
aa(lp26
g8
ag3
ag3
ag3
aa(lp27
g3
ag3
ag3
ag3
aa(lp28
g5
ag3
ag3
ag3
aa(lp29
g3
ag3
ag3
ag3
aa(lp30
g8
ag3
ag3
ag3
aa(lp31
g3
ag3
ag3
ag3
aa(lp32
g3
ag3
ag8
ag3
aa(lp33
g3
ag3
ag3
ag3
aa(lp34
g8
ag3
ag3
ag3
aa(lp35
g3
ag3
ag3
ag3
aa(lp36
g3
ag3
ag8
ag3
aa(lp37
g3
ag3
ag3
ag3
aaa(lp38
(lp39
g3
ag3
ag3
ag3
aa(lp40
g3
ag3
ag3
ag5
aa(lp41
g3
ag3
ag3
ag3
aa(lp42
g3
ag5
ag3
ag3
aa(lp43
g3
ag3
ag3
ag3
aa(lp44
S'3'
p45
ag3
ag3
ag3
aa(lp46
g3
ag3
ag3
ag3
aa(lp47
g8
ag3
ag3
ag3
aa(lp48
g3
ag3
ag3
ag3
aa(lp49
g45
ag3
ag3
ag3
aa(lp50
g3
ag3
ag3
ag3
aa(lp51
g3
ag5
ag3
ag3
aa(lp52
g3
ag3
ag3
ag3
aa(lp53
g45
ag3
ag3
ag3
aa(lp54
g3
ag3
ag3
ag3
aa(lp55
g3
ag5
ag3
ag3
aa(lp56
g3
ag3
ag3
ag3
aa(lp57
g3
ag3
ag3
ag5
aa(lp58
g3
ag3
ag3
ag3
aa(lp59
g3
ag5
ag3
ag3
aa(lp60
g3
ag3
ag3
ag3
aa(lp61
g45
ag3
ag3
ag3
aa(lp62
g3
ag3
ag3
ag3
aa(lp63
g8
ag3
ag3
ag3
aa(lp64
g3
ag3
ag3
ag3
aa(lp65
g45
ag3
ag3
ag3
aa(lp66
g3
ag3
ag3
ag3
aa(lp67
g3
ag5
ag3
ag3
aa(lp68
g3
ag3
ag3
ag3
aa(lp69
g45
ag3
ag3
ag3
aa(lp70
g3
ag3
ag3
ag3
aa(lp71
g3
ag5
ag3
ag3
aa(lp72
g3
ag3
ag3
ag3
aaa(lp73
(lp74
g3
ag3
ag3
ag3
aa(lp75
g3
ag3
ag3
ag5
aa(lp76
g3
ag3
ag3
ag3
aa(lp77
g3
ag8
ag3
ag3
aa(lp78
g3
ag3
ag3
ag3
aa(lp79
g45
ag3
ag3
ag3
aa(lp80
g3
ag3
ag3
ag3
aa(lp81
g8
ag3
ag3
ag3
aa(lp82
g3
ag3
ag3
ag3
aa(lp83
g45
ag3
ag3
ag3
aa(lp84
g3
ag3
ag3
ag3
aa(lp85
g3
ag8
ag3
ag3
aa(lp86
g3
ag3
ag3
ag3
aa(lp87
g45
ag3
ag3
ag3
aa(lp88
g3
ag3
ag3
ag3
aa(lp89
g3
ag8
ag3
ag3
aa(lp90
g3
ag3
ag3
ag3
aa(lp91
g3
ag3
ag3
ag5
aa(lp92
g3
ag3
ag3
ag3
aa(lp93
g3
ag8
ag3
ag3
aa(lp94
g3
ag3
ag3
ag3
aa(lp95
g45
ag3
ag3
ag3
aa(lp96
g3
ag3
ag3
ag3
aa(lp97
g8
ag3
ag3
ag3
aa(lp98
g3
ag3
ag3
ag3
aa(lp99
g45
ag3
ag3
ag3
aa(lp100
g3
ag3
ag3
ag3
aa(lp101
g3
ag8
ag3
ag3
aa(lp102
g3
ag3
ag3
ag3
aa(lp103
g45
ag3
ag3
ag3
aa(lp104
g3
ag3
ag3
ag3
aa(lp105
g3
ag8
ag3
ag3
aa(lp106
g3
ag3
ag3
ag3
aaa(lp107
(lp108
g3
ag3
ag3
ag3
aa(lp109
g3
ag3
ag3
ag5
aa(lp110
g3
ag3
ag3
ag3
aa(lp111
g3
ag45
ag3
ag3
aa(lp112
g3
ag3
ag3
ag3
aa(lp113
g8
ag3
ag3
ag3
aa(lp114
g3
ag3
ag3
ag3
aa(lp115
g5
ag3
ag3
ag3
aa(lp116
g3
ag3
ag3
ag3
aa(lp117
g8
ag3
ag3
ag3
aa(lp118
g3
ag3
ag3
ag3
aa(lp119
g3
ag45
ag3
ag3
aa(lp120
g3
ag3
ag3
ag3
aa(lp121
g8
ag3
ag3
ag3
aa(lp122
g3
ag3
ag3
ag3
aa(lp123
g3
ag45
ag3
ag3
aa(lp124
g3
ag3
ag3
ag3
aa(lp125
g3
ag3
ag3
ag5
aa(lp126
g3
ag3
ag3
ag3
aa(lp127
g3
ag45
ag3
ag3
aa(lp128
g3
ag3
ag3
ag3
aa(lp129
g8
ag3
ag3
ag3
aa(lp130
g3
ag3
ag3
ag3
aa(lp131
g5
ag3
ag3
ag3
aa(lp132
g3
ag3
ag3
ag3
aa(lp133
g8
ag3
ag3
ag3
aa(lp134
g3
ag3
ag3
ag3
aa(lp135
g3
ag45
ag3
ag3
aa(lp136
g3
ag3
ag3
ag3
aa(lp137
g8
ag3
ag3
ag3
aa(lp138
g3
ag3
ag3
ag3
aa(lp139
g3
ag8
ag3
ag3
aa(lp140
g3
ag3
ag3
ag3
aaa(lp141
(lp142
g3
ag3
ag3
ag3
aa(lp143
g3
ag3
ag3
ag5
aa(lp144
g3
ag3
ag3
ag3
aa(lp145
g3
ag5
ag3
ag3
aa(lp146
g3
ag3
ag3
ag3
aa(lp147
g8
ag3
ag3
ag3
aa(lp148
g3
ag3
ag3
ag3
aa(lp149
g5
ag3
ag3
ag3
aa(lp150
g3
ag3
ag3
ag3
aa(lp151
g8
ag3
ag3
ag3
aa(lp152
g3
ag3
ag3
ag3
aa(lp153
g3
ag45
ag3
ag3
aa(lp154
g3
ag3
ag3
ag3
aa(lp155
g3
ag8
ag3
ag3
aa(lp156
g3
ag3
ag3
ag3
aa(lp157
g3
ag45
ag3
ag3
aa(lp158
g3
ag3
ag3
ag3
aa(lp159
g3
ag3
aS'4'
p160
ag3
aa(lp161
g3
ag3
ag3
ag3
aa(lp162
g3
ag45
ag3
ag3
aa(lp163
g3
ag3
ag3
ag3
aa(lp164
g3
ag8
ag3
ag3
aa(lp165
g3
ag3
ag3
ag3
aa(lp166
S'-'
p167
aS'3'
p168
ag167
ag167
aa(lp169
g3
ag3
ag3
ag3
aa(lp170
g167
ag167
ag167
aS'4'
p171
aa(lp172
g3
ag3
ag3
ag3
aa(lp173
g167
ag167
ag167
aS'7'
p174
aa(lp175
g3
ag3
ag3
ag3
aa(lp176
g167
ag167
ag167
aS'5'
p177
aa(lp178
g3
ag3
ag3
ag3
aa(lp179
g167
ag167
ag167
ag171
aa(lp180
g3
ag3
ag3
ag3
aaa(lp181
(lp182
g3
ag3
ag3
ag3
aa(lp183
g3
ag3
aS'1'
p184
ag3
aa(lp185
g3
ag3
ag3
ag3
aa(lp186
g3
ag45
ag3
ag3
aa(lp187
g3
ag3
ag3
ag3
aa(lp188
g5
ag3
ag3
ag3
aa(lp189
g3
ag3
ag3
ag3
aa(lp190
g3
ag45
ag3
ag3
aa(lp191
g3
ag3
ag3
ag3
aa(lp192
g5
ag3
ag3
ag3
aa(lp193
g3
ag3
ag3
ag3
aa(lp194
g3
ag45
ag3
ag3
aa(lp195
g3
ag3
ag3
ag3
aa(lp196
g5
ag3
ag3
ag3
aa(lp197
g3
ag3
ag3
ag3
aa(lp198
g3
ag45
ag3
ag3
aa(lp199
g3
ag3
ag3
ag3
aa(lp200
g3
ag3
ag184
ag3
aa(lp201
g3
ag3
ag3
ag3
aa(lp202
g3
ag45
ag3
ag3
aa(lp203
g3
ag3
ag3
ag3
aa(lp204
g5
ag3
ag3
ag3
aa(lp205
g3
ag3
ag3
ag3
aa(lp206
g3
ag45
ag3
ag3
aa(lp207
g3
ag3
ag3
ag3
aa(lp208
g5
ag3
ag3
ag3
aa(lp209
g3
ag3
ag3
ag3
aa(lp210
g3
ag45
ag3
ag3
aa(lp211
g3
ag3
ag3
ag3
aa(lp212
g5
ag3
ag3
ag3
aa(lp213
g3
ag3
ag3
ag3
aa(lp214
g3
ag45
ag3
ag3
aa(lp215
g3
ag3
ag3
ag3
aaa(lp216
(lp217
g3
ag3
ag3
ag3
aa(lp218
g3
ag8
ag3
ag3
aa(lp219
g3
ag3
ag3
ag3
aa(lp220
g3
aS'5'
p221
ag3
ag3
aa(lp222
g3
ag3
ag3
ag3
aa(lp223
g221
ag3
ag3
ag3
aa(lp224
g3
ag3
ag3
ag3
aa(lp225
g160
ag3
ag3
ag3
aa(lp226
g3
ag3
ag3
ag3
aa(lp227
g221
ag3
ag3
ag3
aa(lp228
g3
ag3
ag3
ag3
aa(lp229
g5
ag3
ag3
ag3
aa(lp230
g3
ag3
ag3
ag3
aa(lp231
g3
ag45
ag3
ag3
aa(lp232
g3
ag3
ag3
ag3
aa(lp233
g5
ag3
ag3
ag3
aa(lp234
g3
ag3
ag3
ag3
aa(lp235
g3
ag8
ag3
ag3
aa(lp236
g3
ag3
ag3
ag3
aa(lp237
g5
ag3
ag3
ag3
aa(lp238
g3
ag3
ag3
ag3
aa(lp239
g3
ag45
ag3
ag3
aa(lp240
g3
ag3
ag3
ag3
aa(lp241
g5
ag3
ag3
ag3
aa(lp242
g3
ag3
ag3
ag3
aa(lp243
g3
ag3
ag8
ag3
aa(lp244
g3
ag3
ag3
ag3
aa(lp245
g3
ag8
ag3
ag3
aa(lp246
g3
ag3
ag3
ag3
aa(lp247
g3
ag5
ag3
ag3
aa(lp248
g3
ag3
ag3
ag3
aa(lp249
g3
ag3
ag8
ag3
aa(lp250
g3
ag3
ag3
ag3
aaa(lp251
(lp252
g3
ag3
ag3
ag3
aa(lp253
g3
ag3
ag160
ag3
aa(lp254
g3
ag3
ag3
ag3
aa(lp255
g3
ag3
ag160
ag3
aa(lp256
g3
ag3
ag3
ag3
aa(lp257
g3
ag45
ag3
ag3
aa(lp258
g3
ag3
ag3
ag3
aa(lp259
g3
ag8
ag3
ag3
aa(lp260
g3
ag3
ag3
ag3
aa(lp261
g3
ag45
ag3
ag3
aa(lp262
g3
ag3
ag3
ag3
aa(lp263
g3
ag3
ag160
ag3
aa(lp264
g3
ag3
ag3
ag3
aa(lp265
g3
ag45
ag3
ag3
aa(lp266
g3
ag3
ag3
ag3
aa(lp267
g3
ag3
ag160
ag3
aa(lp268
g3
ag3
ag3
ag3
aa(lp269
g3
ag3
ag160
ag3
aa(lp270
g3
ag3
ag3
ag3
aa(lp271
g3
ag3
ag160
ag3
aa(lp272
g3
ag3
ag3
ag3
aa(lp273
g3
ag45
ag3
ag3
aa(lp274
g3
ag3
ag3
ag3
aa(lp275
g3
ag8
ag3
ag3
aa(lp276
g3
ag3
ag3
ag3
aa(lp277
g3
ag45
ag3
ag3
aa(lp278
g3
ag3
ag3
ag3
aa(lp279
g3
ag3
ag160
ag3
aa(lp280
g3
ag3
ag3
ag3
aa(lp281
g3
ag45
ag3
ag3
aa(lp282
g3
ag3
ag3
ag3
aa(lp283
S'-'
p284
ag284
aS'4'
p285
ag284
aa(lp286
g3
ag3
ag3
ag3
aaa(lp287
(lp288
g3
ag3
ag3
ag3
aa(lp289
g3
ag3
ag184
ag3
aa(lp290
g3
ag3
ag3
ag3
aa(lp291
g3
ag3
ag184
ag3
aa(lp292
g3
ag3
ag3
ag3
aa(lp293
g3
ag3
ag8
ag3
aa(lp294
g3
ag3
ag3
ag3
aa(lp295
g3
ag5
ag3
ag3
aa(lp296
g3
ag3
ag3
ag3
aa(lp297
g3
ag3
ag8
ag3
aa(lp298
g3
ag3
ag3
ag3
aa(lp299
g3
ag3
ag184
ag3
aa(lp300
g3
ag3
ag3
ag3
aa(lp301
S'-'
p302
ag302
ag302
aS'4'
p303
aa(lp304
g3
ag3
ag3
ag3
aa(lp305
g302
ag302
ag302
aS'2'
p306
aa(lp307
g3
ag3
ag3
ag3
aa(lp308
g3
ag45
ag3
ag3
aa(lp309
g3
ag3
ag3
ag3
aa(lp310
g3
ag8
ag3
ag3
aa(lp311
g3
ag3
ag3
ag3
aa(lp312
g3
ag5
ag3
ag3
aa(lp313
g3
ag3
ag3
ag3
aa(lp314
g221
ag3
ag3
ag3
aa(lp315
g3
ag3
ag3
ag3
aa(lp316
g160
ag3
ag3
ag3
aa(lp317
g3
ag3
ag3
ag3
aa(lp318
g8
ag3
ag3
ag3
aa(lp319
g3
ag3
ag3
ag3
aa(lp320
g5
ag3
ag3
ag3
aa(lp321
g3
ag3
ag3
ag3
aa(lp322
g3
ag45
ag3
ag3
aa(lp323
g3
ag3
ag3
ag3
aaa(lp324
(lp325
g3
ag3
ag3
ag3
aa(lp326
g3
ag8
ag3
ag3
aa(lp327
g3
ag3
ag3
ag3
aa(lp328
g3
ag5
ag3
ag3
aa(lp329
g3
ag3
ag3
ag3
aa(lp330
g3
ag3
ag8
ag3
aa(lp331
g3
ag3
ag3
ag3
aa(lp332
g221
ag3
ag3
ag3
aa(lp333
g3
ag3
ag3
ag3
aa(lp334
g3
ag221
ag3
ag3
aa(lp335
g3
ag3
ag3
ag3
aa(lp336
g221
ag3
ag3
ag3
aa(lp337
g3
ag3
ag3
ag3
aa(lp338
g3
ag8
ag3
ag3
aa(lp339
g3
ag3
ag3
ag3
aa(lp340
g5
ag3
ag3
ag3
aa(lp341
g3
ag3
ag3
ag3
aa(lp342
g3
ag3
ag8
ag3
aa(lp343
g3
ag3
ag3
ag3
aa(lp344
g3
ag5
ag3
ag3
aa(lp345
g3
ag3
ag3
ag3
aa(lp346
g3
ag8
ag3
ag3
aa(lp347
g3
ag3
ag3
ag3
aa(lp348
g5
ag3
ag3
ag3
aa(lp349
g3
ag3
ag3
ag3
aa(lp350
g3
ag45
ag3
ag3
aa(lp351
g3
ag3
ag3
ag3
aa(lp352
g3
ag8
ag3
ag3
aa(lp353
g3
ag3
ag3
ag3
aa(lp354
g3
ag5
ag3
ag3
aa(lp355
g3
ag3
ag3
ag3
aa(lp356
g3
ag3
ag8
ag3
aa(lp357
g3
ag3
ag3
ag3
aaa(lp358
(lp359
g3
ag3
ag3
ag3
aa(lp360
g3
ag160
ag3
ag3
aa(lp361
g3
ag3
ag3
ag3
aa(lp362
g3
ag3
ag8
ag3
aa(lp363
g3
ag3
ag3
ag3
aa(lp364
g3
ag184
ag3
ag3
aa(lp365
g3
ag3
ag3
ag3
aa(lp366
g3
ag5
ag3
ag3
aa(lp367
g3
ag3
ag3
ag3
aa(lp368
g3
ag184
ag3
ag3
aa(lp369
g3
ag3
ag3
ag3
aa(lp370
g3
ag3
ag8
ag3
aa(lp371
g3
ag3
ag3
ag3
aa(lp372
g3
ag160
ag3
ag3
aa(lp373
g3
ag3
ag3
ag3
aa(lp374
g3
ag3
ag8
ag3
aa(lp375
g3
ag3
ag3
ag3
aa(lp376
g8
ag3
ag3
ag3
aa(lp377
g3
ag3
ag3
ag3
aa(lp378
g3
ag3
ag8
ag3
aa(lp379
g3
ag3
ag3
ag3
aa(lp380
g3
ag184
ag3
ag3
aa(lp381
g3
ag3
ag3
ag3
aa(lp382
g3
ag5
ag3
ag3
aa(lp383
g3
ag3
ag3
ag3
aa(lp384
g3
ag184
ag3
ag3
aa(lp385
g3
ag3
ag3
ag3
aa(lp386
g3
ag3
ag8
ag3
aa(lp387
g3
ag3
ag3
ag3
aa(lp388
g3
ag160
ag3
ag3
aa(lp389
g3
ag3
ag3
ag3
aa(lp390
g3
ag3
ag8
ag3
aa(lp391
g3
ag3
ag3
ag3
aaa(lp392
(lp393
g3
ag3
ag3
ag3
aa(lp394
g3
ag3
ag5
ag3
aa(lp395
g3
ag3
ag3
ag3
aa(lp396
g3
ag5
ag3
ag3
aa(lp397
g3
ag3
ag3
ag3
aa(lp398
g5
ag3
ag3
ag3
aa(lp399
g3
ag3
ag3
ag3
aa(lp400
g8
ag3
ag3
ag3
aa(lp401
g3
ag3
ag3
ag3
aa(lp402
g45
ag3
ag3
ag3
aa(lp403
g3
ag3
ag3
ag3
aa(lp404
g5
ag3
ag3
ag3
aa(lp405
g3
ag3
ag3
ag3
aa(lp406
g3
ag5
ag3
ag3
aa(lp407
g3
ag3
ag3
ag3
aa(lp408
g3
ag3
ag8
ag3
aa(lp409
g3
ag3
ag3
ag3
aa(lp410
g3
ag3
ag5
ag3
aa(lp411
g3
ag3
ag3
ag3
aa(lp412
g3
ag5
ag3
ag3
aa(lp413
g3
ag3
ag3
ag3
aa(lp414
g5
ag3
ag3
ag3
aa(lp415
g3
ag3
ag3
ag3
aa(lp416
g8
ag3
ag3
ag3
aa(lp417
g3
ag3
ag3
ag3
aa(lp418
g45
ag3
ag3
ag3
aa(lp419
g3
ag3
ag3
ag3
aa(lp420
g5
ag3
ag3
ag3
aa(lp421
g3
ag3
ag3
ag3
aa(lp422
S'-'
p423
aS'2'
p424
ag423
ag423
aa(lp425
g3
ag3
ag3
ag3
aa(lp426
g423
aS'0'
p427
ag423
ag423
aa(lp428
g3
ag3
ag3
ag3
aaa(lp429
(lp430
g3
ag3
ag3
ag3
aa(lp431
g3
ag3
ag45
ag3
aa(lp432
g3
ag3
ag3
ag3
aa(lp433
g3
ag8
ag3
ag3
aa(lp434
g3
ag3
ag3
ag3
aa(lp435
g3
ag3
ag45
ag3
aa(lp436
g3
ag3
ag3
ag3
aa(lp437
g3
ag8
ag3
ag3
aa(lp438
g3
ag3
ag3
ag3
aa(lp439
g5
ag3
ag3
ag3
aa(lp440
g3
ag3
ag3
ag3
aa(lp441
g3
ag8
ag3
ag3
aa(lp442
g3
ag3
ag3
ag3
aa(lp443
g5
ag3
ag3
ag3
aa(lp444
g3
ag3
ag3
ag3
aa(lp445
g3
ag8
ag3
ag3
aa(lp446
g3
ag3
ag3
ag3
aa(lp447
g3
ag3
ag45
ag3
aa(lp448
g3
ag3
ag3
ag3
aa(lp449
g3
ag8
ag3
ag3
aa(lp450
g3
ag3
ag3
ag3
aa(lp451
g3
ag3
ag45
ag3
aa(lp452
g3
ag3
ag3
ag3
aa(lp453
g3
ag8
ag3
ag3
aa(lp454
g3
ag3
ag3
ag3
aa(lp455
g5
ag3
ag3
ag3
aa(lp456
g3
ag3
ag3
ag3
aa(lp457
g3
ag8
ag3
ag3
aa(lp458
g3
ag3
ag3
ag3
aa(lp459
g5
ag3
ag3
ag3
aa(lp460
g3
ag3
ag3
ag3
aa(lp461
g3
ag8
ag3
ag3
aa(lp462
g3
ag3
ag3
ag3
aaa(lp463
(lp464
g3
ag3
ag3
ag3
aa(lp465
S'-'
p466
aS'3'
p467
ag466
ag466
aa(lp468
g466
ag466
ag466
ag466
aa(lp469
g466
aS'2'
p470
ag466
ag466
aa(lp471
g466
ag466
ag466
ag466
aa(lp472
g466
aS'0'
p473
ag466
ag466
aa(lp474
g466
ag466
ag466
ag466
aa(lp475
g466
ag467
ag466
ag466
aa(lp476
g466
ag466
ag466
ag466
aa(lp477
g466
ag470
ag466
ag466
aa(lp478
g466
ag466
ag466
ag466
aa(lp479
g466
ag467
ag466
ag466
aa(lp480
g466
ag466
ag466
ag466
aa(lp481
g473
ag466
ag466
ag466
aa(lp482
g466
ag466
ag466
ag466
aa(lp483
g466
ag470
ag466
ag466
aa(lp484
g466
ag466
ag466
ag466
aa(lp485
g466
ag467
ag466
ag466
aa(lp486
g466
ag466
ag466
ag466
aa(lp487
g466
ag470
ag466
ag466
aa(lp488
g466
ag466
ag466
ag466
aa(lp489
g466
ag473
ag466
ag466
aa(lp490
g466
ag466
ag466
ag466
aa(lp491
g466
ag466
ag470
ag466
aa(lp492
g466
ag466
ag466
ag466
aa(lp493
g467
ag466
ag466
ag466
aa(lp494
g466
ag466
ag466
ag466
aa(lp495
g470
ag466
ag466
ag466
aa(lp496
g466
ag466
ag466
ag466
aa(lp497
g473
ag466
ag466
ag466
aa(lp498
g466
ag466
ag466
ag466
aa(lp499
S'-'
p500
ag500
aS'7'
p501
ag500
aa(lp502
g466
ag466
ag466
ag466
aaa(lp503
(lp504
g466
ag466
ag466
ag466
aa(lp505
g500
ag500
aS'6'
p506
ag500
aa(lp507
g466
ag466
ag466
ag466
aa(lp508
g500
aS'8'
p509
ag500
ag500
aa(lp510
g466
ag466
ag466
ag466
aa(lp511
S'5'
p512
ag466
ag466
ag466
aa(lp513
g466
ag466
ag466
ag466
aa(lp514
g500
ag509
ag500
ag500
aa(lp515
g466
ag466
ag466
ag466
aa(lp516
g512
ag466
ag466
ag466
aa(lp517
g466
ag466
ag466
ag466
aa(lp518
g500
ag509
ag500
ag500
aa(lp519
g466
ag466
ag466
ag466
aa(lp520
g512
ag466
ag466
ag466
aa(lp521
g466
ag466
ag466
ag466
aa(lp522
g500
ag509
ag500
ag500
aa(lp523
g466
ag466
ag466
ag466
aa(lp524
g500
ag500
ag506
ag500
aa(lp525
g466
ag466
ag466
ag466
aa(lp526
g500
ag509
ag500
ag500
aa(lp527
g466
ag466
ag466
ag466
aa(lp528
g512
ag466
ag466
ag466
aa(lp529
g466
ag466
ag466
ag466
aa(lp530
g500
ag509
ag500
ag500
aa(lp531
g466
ag466
ag466
ag466
aa(lp532
g512
ag466
ag466
ag466
aa(lp533
g466
ag466
ag466
ag466
aa(lp534
g500
ag509
ag500
ag500
aa(lp535
g466
ag466
ag466
ag466
aa(lp536
g512
ag466
ag466
ag466
aa(lp537
g466
ag466
ag466
ag466
aa(lp538
g500
ag509
ag500
ag500
aa(lp539
g466
ag466
ag466
ag466
aaa(lp540
(lp541
g466
ag466
ag466
ag466
aa(lp542
g466
ag466
ag466
ag473
aa(lp543
g466
ag466
ag466
ag466
aa(lp544
g466
aS'7'
p545
ag466
ag466
aa(lp546
g466
ag466
ag466
ag466
aa(lp547
S'8'
p548
ag466
ag466
ag466
aa(lp549
g466
ag466
ag466
ag466
aa(lp550
g545
ag466
ag466
ag466
aa(lp551
g466
ag466
ag466
ag466
aa(lp552
g548
ag466
ag466
ag466
aa(lp553
g466
ag466
ag466
ag466
aa(lp554
g466
ag545
ag466
ag466
aa(lp555
g466
ag466
ag466
ag466
aa(lp556
g548
ag466
ag466
ag466
aa(lp557
g466
ag466
ag466
ag466
aa(lp558
g466
ag545
ag466
ag466
aa(lp559
g466
ag466
ag466
ag466
aa(lp560
g466
ag466
ag466
ag473
aa(lp561
g466
ag466
ag466
ag466
aa(lp562
g466
ag545
ag466
ag466
aa(lp563
g466
ag466
ag466
ag466
aa(lp564
g548
ag466
ag466
ag466
aa(lp565
g466
ag466
ag466
ag466
aa(lp566
g545
ag466
ag466
ag466
aa(lp567
g466
ag466
ag466
ag466
aa(lp568
g548
ag466
ag466
ag466
aa(lp569
g466
ag466
ag466
ag466
aa(lp570
g466
ag545
ag466
ag466
aa(lp571
g466
ag466
ag466
ag466
aa(lp572
g548
ag466
ag466
ag466
aa(lp573
g466
ag466
ag466
ag466
aa(lp574
g466
ag545
ag466
ag466
aa(lp575
g466
ag466
ag466
ag466
aaa(lp576
(lp577
g466
ag466
ag466
ag466
aa(lp578
g466
ag466
ag466
ag473
aa(lp579
g466
ag466
ag466
ag466
aa(lp580
g466
ag548
ag466
ag466
aa(lp581
g466
ag466
ag466
ag466
aa(lp582
g545
ag466
ag466
ag466
aa(lp583
g466
ag466
ag466
ag466
aa(lp584
S'--'
p585
aS'10'
p586
aS'--'
p587
aS'--'
p588
aa(lp589
g466
ag466
ag466
ag466
aa(lp590
g545
ag466
ag466
ag466
aa(lp591
g466
ag466
ag466
ag466
aa(lp592
g466
ag548
ag466
ag466
aa(lp593
g466
ag466
ag466
ag466
aa(lp594
g545
ag466
ag466
ag466
aa(lp595
g466
ag466
ag466
ag466
aa(lp596
g466
ag548
ag466
ag466
aa(lp597
g466
ag466
ag466
ag466
aa(lp598
g466
ag466
ag466
ag473
aa(lp599
g466
ag466
ag466
ag466
aa(lp600
g466
ag548
ag466
ag466
aa(lp601
g466
ag466
ag466
ag466
aa(lp602
g545
ag466
ag466
ag466
aa(lp603
g466
ag466
ag466
ag466
aa(lp604
S'--'
p605
aS'10'
p606
aS'--'
p607
aS'--'
p608
aa(lp609
g466
ag466
ag466
ag466
aa(lp610
g545
ag466
ag466
ag466
aa(lp611
g466
ag466
ag466
ag466
aa(lp612
g466
ag548
ag466
ag466
aa(lp613
g466
ag466
ag466
ag466
aa(lp614
g545
ag466
ag466
ag466
aa(lp615
g466
ag466
ag466
ag466
aa(lp616
g466
ag548
ag466
ag466
aa(lp617
g466
ag466
ag466
ag466
aaa(lp618
(lp619
g466
ag466
ag466
ag466
aa(lp620
g466
ag466
ag466
ag473
aa(lp621
g466
ag466
ag466
ag466
aa(lp622
S'--'
p623
aS'14'
p624
aS'--'
p625
aS'--'
p626
aa(lp627
g466
ag466
ag466
ag466
aa(lp628
S'15'
p629
aS'--'
p630
aS'--'
p631
aS'--'
p632
aa(lp633
g466
ag466
ag466
ag466
aa(lp634
S'14'
p635
aS'--'
p636
aS'--'
p637
aS'--'
p638
aa(lp639
g466
ag466
ag466
ag466
aa(lp640
S'15'
p641
aS'--'
p642
aS'--'
p643
aS'--'
p644
aa(lp645
g466
ag466
ag466
ag466
aa(lp646
S'--'
p647
aS'14'
p648
aS'--'
p649
aS'--'
p650
aa(lp651
g466
ag466
ag466
ag466
aa(lp652
S'15'
p653
aS'--'
p654
aS'--'
p655
aS'--'
p656
aa(lp657
g466
ag466
ag466
ag466
aa(lp658
S'--'
p659
aS'14'
p660
aS'--'
p661
aS'--'
p662
aa(lp663
g466
ag466
ag466
ag466
aa(lp664
g466
ag466
ag466
ag473
aa(lp665
g466
ag466
ag466
ag466
aa(lp666
S'--'
p667
aS'14'
p668
aS'--'
p669
aS'--'
p670
aa(lp671
g466
ag466
ag466
ag466
aa(lp672
S'15'
p673
aS'--'
p674
aS'--'
p675
aS'--'
p676
aa(lp677
g466
ag466
ag466
ag466
aa(lp678
S'14'
p679
aS'--'
p680
aS'--'
p681
aS'--'
p682
aa(lp683
g466
ag466
ag466
ag466
aa(lp684
S'15'
p685
aS'--'
p686
aS'--'
p687
aS'--'
p688
aa(lp689
g466
ag466
ag466
ag466
aa(lp690
S'--'
p691
aS'14'
p692
aS'--'
p693
aS'--'
p694
aa(lp695
g466
ag466
ag466
ag466
aa(lp696
S'15'
p697
aS'--'
p698
aS'--'
p699
aS'--'
p700
aa(lp701
g466
ag466
ag466
ag466
aa(lp702
S'--'
p703
aS'14'
p704
aS'--'
p705
aS'--'
p706
aa(lp707
g466
ag466
ag466
ag466
aaa(lp708
(lp709
g466
ag466
ag466
ag466
aa(lp710
g466
ag466
ag466
ag473
aa(lp711
g466
ag466
ag466
ag466
aa(lp712
S'--'
p713
aS'10'
p714
aS'--'
p715
aS'--'
p716
aa(lp717
g466
ag466
ag466
ag466
aa(lp718
S'14'
p719
aS'--'
p720
aS'--'
p721
aS'--'
p722
aa(lp723
g466
ag466
ag466
ag466
aa(lp724
S'12'
p725
aS'--'
p726
aS'--'
p727
aS'--'
p728
aa(lp729
g466
ag466
ag466
ag466
aa(lp730
S'14'
p731
aS'--'
p732
aS'--'
p733
aS'--'
p734
aa(lp735
g466
ag466
ag466
ag466
aa(lp736
S'10'
p737
aS'--'
p738
aS'--'
p739
aS'--'
p740
aa(lp741
g466
ag466
ag466
ag466
aa(lp742
S'9'
p743
ag466
ag466
ag466
aa(lp744
g466
ag466
ag466
ag466
aa(lp745
g545
ag466
ag466
ag466
aa(lp746
g466
ag466
ag466
ag466
aa(lp747
S'--'
p748
aS'10'
p749
aS'--'
p750
aS'--'
p751
aa(lp752
g466
ag466
ag466
ag466
aa(lp753
g466
ag548
ag466
ag466
aa(lp754
g466
ag466
ag466
ag466
aa(lp755
g466
ag545
ag466
ag466
aa(lp756
g466
ag466
ag466
ag466
aa(lp757
g473
ag466
ag466
ag466
aa(lp758
g466
ag466
ag466
ag466
aa(lp759
g466
ag467
ag466
ag466
aa(lp760
g466
ag466
ag466
ag466
aa(lp761
g466
ag470
ag466
ag466
aa(lp762
g466
ag466
ag466
ag466
aa(lp763
g466
ag473
ag466
ag466
aa(lp764
g466
ag466
ag466
ag466
aa(lp765
g466
ag466
ag470
ag466
aa(lp766
g466
ag466
ag466
ag466
aaa(lp767
(lp768
g466
ag466
ag466
ag466
aa(lp769
g466
ag466
aS'1'
p770
ag466
aa(lp771
g466
ag466
ag466
ag466
aa(lp772
g473
ag466
ag466
ag466
aa(lp773
g466
ag466
ag466
ag466
aa(lp774
g466
ag473
ag466
ag466
aa(lp775
g466
ag466
ag466
ag466
aa(lp776
g466
ag470
ag466
ag466
aa(lp777
g466
ag466
ag466
ag466
aa(lp778
g466
ag467
ag466
ag466
aa(lp779
g466
ag466
ag466
ag466
aa(lp780
g466
ag473
ag466
ag466
aa(lp781
g466
ag466
ag466
ag466
aa(lp782
g466
ag470
ag466
ag466
aa(lp783
g466
ag466
ag466
ag466
aa(lp784
g466
ag467
ag466
ag466
aa(lp785
g466
ag466
ag466
ag466
aa(lp786
g466
ag466
ag770
ag466
aa(lp787
g466
ag466
ag466
ag466
aa(lp788
g473
ag466
ag466
ag466
aa(lp789
g466
ag466
ag466
ag466
aa(lp790
g466
ag473
ag466
ag466
aa(lp791
g466
ag466
ag466
ag466
aa(lp792
g466
ag470
ag466
ag466
aa(lp793
g466
ag466
ag466
ag466
aa(lp794
g466
ag467
ag466
ag466
aa(lp795
g466
ag466
ag466
ag466
aa(lp796
g466
ag473
ag466
ag466
aa(lp797
g466
ag466
ag466
ag466
aa(lp798
g466
ag470
ag466
ag466
aa(lp799
g466
ag466
ag466
ag466
aa(lp800
g466
ag467
ag466
ag466
aa(lp801
g466
ag466
ag466
ag466
aaa(lp802
(lp803
g466
ag466
ag466
ag466
aa(lp804
g466
ag466
ag473
ag466
aa(lp805
g466
ag466
ag466
ag466
aa(lp806
g473
ag466
ag466
ag466
aa(lp807
g466
ag466
ag466
ag466
aa(lp808
g466
ag466
ag470
ag466
aa(lp809
g466
ag466
ag466
ag466
aa(lp810
g466
ag473
ag466
ag466
aa(lp811
g466
ag466
ag466
ag466
aa(lp812
g466
ag470
ag466
ag466
aa(lp813
g466
ag466
ag466
ag466
aa(lp814
g466
ag466
ag470
ag466
aa(lp815
g466
ag466
ag466
ag466
aa(lp816
g466
ag473
ag466
ag466
aa(lp817
g466
ag466
ag466
ag466
aa(lp818
g466
ag470
ag466
ag466
aa(lp819
g466
ag466
ag466
ag466
aa(lp820
g466
ag466
ag473
ag466
aa(lp821
g466
ag466
ag466
ag466
aa(lp822
g473
ag466
ag466
ag466
aa(lp823
g466
ag466
ag466
ag466
aa(lp824
g466
ag466
ag470
ag466
aa(lp825
g466
ag466
ag466
ag466
aa(lp826
g466
ag473
ag466
ag466
aa(lp827
g466
ag466
ag466
ag466
aa(lp828
g466
ag470
ag466
ag466
aa(lp829
g466
ag466
ag466
ag466
aa(lp830
g466
ag466
ag470
ag466
aa(lp831
g466
ag466
ag466
ag466
aa(lp832
g466
ag473
ag466
ag466
aa(lp833
g466
ag466
ag466
ag466
aa(lp834
g466
ag470
ag466
ag466
aa(lp835
g466
ag466
ag466
ag466
aaa(lp836
(lp837
g466
ag466
ag466
ag466
aa(lp838
g466
ag466
ag473
ag466
aa(lp839
g466
ag466
ag466
ag466
aa(lp840
g473
ag466
ag466
ag466
aa(lp841
g466
ag466
ag466
ag466
aa(lp842
g466
ag466
ag470
ag466
aa(lp843
g466
ag466
ag466
ag466
aa(lp844
g466
ag470
ag466
ag466
aa(lp845
g466
ag466
ag466
ag466
aa(lp846
g473
ag466
ag466
ag466
aa(lp847
g466
ag466
ag466
ag466
aa(lp848
S'4'
p849
ag466
ag466
ag466
aa(lp850
g466
ag466
ag466
ag466
aa(lp851
g512
ag466
ag466
ag466
aa(lp852
g466
ag466
ag466
ag466
aa(lp853
g466
ag466
ag466
ag466
aa(lp854
g466
ag466
ag466
ag466
aa(lp855
g466
ag466
ag466
ag466
aa(lp856
g466
ag466
ag466
ag466
aa(lp857
g500
ag500
ag500
aS'2'
p858
aa(lp859
g466
ag466
ag466
ag466
aa(lp860
g500
ag500
ag500
aS'4'
p861
aa(lp862
g466
ag466
ag466
ag466
aa(lp863
g466
ag466
ag473
ag466
aa(lp864
g466
ag466
ag466
ag466
aa(lp865
g466
ag466
ag470
ag466
aa(lp866
g466
ag466
ag466
ag466
aa(lp867
g466
ag473
ag466
ag466
aa(lp868
g466
ag466
ag466
ag466
aa(lp869
g466
ag470
ag466
ag466
aa(lp870
g466
ag466
ag466
ag466
aa(lp871
g466
ag467
ag466
ag466
aa(lp872
g466
ag466
ag466
ag466
aaa(lp873
(lp874
g466
ag466
ag466
ag466
aa(lp875
g473
ag466
ag466
ag466
aa(lp876
g466
ag466
ag466
ag466
aa(lp877
g466
ag470
ag466
ag466
aa(lp878
g466
ag466
ag466
ag466
aa(lp879
g466
ag466
ag470
ag466
aa(lp880
g466
ag466
ag466
ag466
aa(lp881
g466
ag473
ag466
ag466
aa(lp882
g466
ag466
ag466
ag466
aa(lp883
g466
ag470
ag466
ag466
aa(lp884
g466
ag466
ag466
ag466
aa(lp885
g466
ag467
ag466
ag466
aa(lp886
g466
ag466
ag466
ag466
aa(lp887
g473
ag466
ag466
ag466
aa(lp888
g466
ag466
ag466
ag466
aa(lp889
g470
ag466
ag466
ag466
aa(lp890
g466
ag466
ag466
ag466
aa(lp891
g467
ag466
ag466
ag466
aa(lp892
g466
ag466
ag466
ag466
aa(lp893
g473
ag466
ag466
ag466
aa(lp894
g466
ag466
ag466
ag466
aa(lp895
g466
ag470
ag466
ag466
aa(lp896
g466
ag466
ag466
ag466
aa(lp897
g466
ag467
ag466
ag466
aa(lp898
g466
ag466
ag466
ag466
aa(lp899
g473
ag466
ag466
ag466
aa(lp900
g466
ag466
ag466
ag466
aa(lp901
g470
ag466
ag466
ag466
aa(lp902
g466
ag466
ag466
ag466
aa(lp903
g467
ag466
ag466
ag466
aa(lp904
g466
ag466
ag466
ag466
aa(lp905
g512
ag466
ag466
ag466
aa(lp906
g466
ag466
ag466
ag466
aaa(lp907
(lp908
g466
ag466
ag466
ag466
aa(lp909
S'6'
p910
ag466
ag466
ag466
aa(lp911
g466
ag466
ag466
ag466
aa(lp912
S'5'
p913
ag500
ag500
ag500
aa(lp914
g466
ag466
ag466
ag466
aa(lp915
g849
ag466
ag466
ag466
aa(lp916
g466
ag466
ag466
ag466
aa(lp917
g512
ag466
ag466
ag466
aa(lp918
g466
ag466
ag466
ag466
aa(lp919
g512
ag466
ag466
ag466
aa(lp920
g466
ag466
ag466
ag466
aa(lp921
g467
ag466
ag466
ag466
aa(lp922
g466
ag466
ag466
ag466
aa(lp923
g470
ag466
ag466
ag466
aa(lp924
g466
ag466
ag466
ag466
aa(lp925
g467
ag466
ag466
ag466
aa(lp926
g466
ag466
ag466
ag466
aa(lp927
g467
ag466
ag466
ag466
aa(lp928
g466
ag466
ag466
ag466
aa(lp929
g473
ag466
ag466
ag466
aa(lp930
g466
ag466
ag466
ag466
aa(lp931
g466
ag470
ag466
ag466
aa(lp932
g466
ag466
ag466
ag466
aa(lp933
g466
ag473
ag466
ag466
aa(lp934
g466
ag466
ag466
ag466
aa(lp935
g466
ag466
ag470
ag466
aa(lp936
g466
ag466
ag466
ag466
aa(lp937
g500
ag500
ag500
ag858
aa(lp938
g466
ag466
ag466
ag466
aa(lp939
g500
ag500
ag500
ag861
aa(lp940
g466
ag466
ag466
ag466
aa(lp941
g500
ag500
aS'0'
p942
ag500
aa(lp943
g466
ag466
ag466
ag466
aaa(lp944
(lp945
g466
ag466
ag466
ag466
aa(lp946
g466
ag466
ag470
ag466
aa(lp947
g466
ag466
ag466
ag466
aa(lp948
g500
ag500
ag858
ag500
aa(lp949
g466
ag466
ag466
ag466
aa(lp950
g466
ag466
ag470
ag466
aa(lp951
g466
ag466
ag466
ag466
aa(lp952
g466
ag470
ag466
ag466
aa(lp953
g466
ag466
ag466
ag466
aa(lp954
g473
ag466
ag466
ag466
aa(lp955
g466
ag466
ag466
ag466
aa(lp956
g470
ag466
ag466
ag466
aa(lp957
g466
ag466
ag466
ag466
aa(lp958
g467
ag466
ag466
ag466
aa(lp959
g466
ag466
ag466
ag466
aa(lp960
g473
ag466
ag466
ag466
aa(lp961
g466
ag466
ag466
ag466
aa(lp962
g470
ag466
ag466
ag466
aa(lp963
g466
ag466
ag466
ag466
aa(lp964
g466
ag467
ag466
ag466
aa(lp965
g466
ag466
ag466
ag466
aa(lp966
g466
ag466
ag470
ag466
aa(lp967
g466
ag466
ag466
ag466
aa(lp968
g466
ag466
ag473
ag466
aa(lp969
g466
ag466
ag466
ag466
aa(lp970
g500
ag500
ag500
ag861
aa(lp971
g466
ag466
ag466
ag466
aa(lp972
g500
ag500
ag500
ag942
aa(lp973
g466
ag466
ag466
ag466
aa(lp974
g500
ag500
ag500
ag858
aa(lp975
g466
ag466
ag466
ag466
aa(lp976
g500
ag500
ag500
ag861
aa(lp977
g466
ag466
ag466
ag466
aaa(lp978
(lp979
g466
ag466
ag466
ag466
aa(lp980
g500
ag500
ag858
ag500
aa(lp981
g466
ag466
ag466
ag466
aa(lp982
g500
ag500
ag500
ag942
aa(lp983
g466
ag466
ag466
ag466
aa(lp984
g500
ag500
ag500
ag861
aa(lp985
g466
ag466
ag466
ag466
aa(lp986
g466
ag466
ag470
ag466
aa(lp987
g466
ag466
ag466
ag466
aa(lp988
g466
ag467
ag466
ag466
aa(lp989
g466
ag466
ag466
ag466
aa(lp990
g473
ag466
ag466
ag466
aa(lp991
g466
ag466
ag466
ag466
aa(lp992
g470
ag466
ag466
ag466
aa(lp993
g466
ag466
ag466
ag466
aa(lp994
g466
ag467
ag466
ag466
aa(lp995
g466
ag466
ag466
ag466
aa(lp996
g849
ag466
ag466
ag466
aa(lp997
g466
ag466
ag466
ag466
aa(lp998
g770
ag466
ag466
ag466
aa(lp999
g466
ag466
ag466
ag466
aa(lp1000
g473
ag466
ag466
ag466
aa(lp1001
g466
ag466
ag466
ag466
aa(lp1002
g770
ag466
ag466
ag466
aa(lp1003
g466
ag466
ag466
ag466
aa(lp1004
g770
ag466
ag466
ag466
aa(lp1005
g466
ag466
ag466
ag466
aa(lp1006
g473
ag466
ag466
ag466
aa(lp1007
g466
ag466
ag466
ag466
aa(lp1008
g466
ag849
ag466
ag466
aa(lp1009
g466
ag466
ag466
ag466
aa(lp1010
g473
ag466
ag466
ag466
aa(lp1011
g466
ag466
ag466
ag466
aaa(lp1012
(lp1013
g466
ag466
ag466
ag466
aa(lp1014
g473
ag466
ag466
ag466
aa(lp1015
g466
ag466
ag466
ag466
aa(lp1016
g466
ag467
ag466
ag466
aa(lp1017
g466
ag466
ag466
ag466
aa(lp1018
g466
ag470
ag466
ag466
aa(lp1019
g466
ag466
ag466
ag466
aa(lp1020
g466
ag467
ag466
ag466
aa(lp1021
g466
ag466
ag466
ag466
aa(lp1022
g466
ag467
ag466
ag466
aa(lp1023
g466
ag466
ag466
ag466
aa(lp1024
g466
ag473
ag466
ag466
aa(lp1025
g466
ag466
ag466
ag466
aa(lp1026
g466
ag466
ag770
ag466
aa(lp1027
g466
ag466
ag466
ag466
aa(lp1028
g500
ag500
ag500
ag861
aa(lp1029
g466
ag466
ag466
ag466
aa(lp1030
g500
ag500
ag500
ag858
aa(lp1031
g466
ag466
ag466
ag466
aa(lp1032
g466
ag466
ag770
ag466
aa(lp1033
g466
ag466
ag466
ag466
aa(lp1034
g466
ag473
ag466
ag466
aa(lp1035
g466
ag466
ag466
ag466
aa(lp1036
g466
ag467
ag466
ag466
aa(lp1037
g466
ag466
ag466
ag466
aa(lp1038
g473
ag466
ag466
ag466
aa(lp1039
g466
ag466
ag466
ag466
aa(lp1040
g849
ag466
ag466
ag466
aa(lp1041
g466
ag466
ag466
ag466
aa(lp1042
g512
ag466
ag466
ag466
aa(lp1043
g466
ag466
ag466
ag466
aa(lp1044
g849
ag466
ag466
ag466
aa(lp1045
g466
ag466
ag466
ag466
aaa(lp1046
(lp1047
g466
ag466
ag466
ag466
aa(lp1048
g512
ag466
ag466
ag466
aa(lp1049
g466
ag466
ag466
ag466
aa(lp1050
g473
ag466
ag466
ag466
aa(lp1051
g466
ag466
ag466
ag466
aa(lp1052
g466
ag470
ag466
ag466
aa(lp1053
g466
ag466
ag466
ag466
aa(lp1054
g466
ag473
ag466
ag466
aa(lp1055
g466
ag466
ag466
ag466
aa(lp1056
g466
ag470
ag466
ag466
aa(lp1057
g466
ag466
ag466
ag466
aa(lp1058
g473
ag466
ag466
ag466
aa(lp1059
g466
ag466
ag466
ag466
aa(lp1060
g466
ag466
ag470
ag466
aa(lp1061
g466
ag466
ag466
ag466
aa(lp1062
g466
ag470
ag466
ag466
aa(lp1063
g466
ag466
ag466
ag466
aa(lp1064
g473
ag466
ag466
ag466
aa(lp1065
g466
ag466
ag466
ag466
aa(lp1066
g512
ag466
ag466
ag466
aa(lp1067
g466
ag466
ag466
ag466
aa(lp1068
g849
ag466
ag466
ag466
aa(lp1069
g466
ag466
ag466
ag466
aa(lp1070
g470
ag466
ag466
ag466
aa(lp1071
g466
ag466
ag466
ag466
aa(lp1072
g473
ag466
ag466
ag466
aa(lp1073
g466
ag466
ag466
ag466
aa(lp1074
g466
ag467
ag466
ag466
aa(lp1075
g466
ag466
ag466
ag466
aa(lp1076
g466
ag470
ag466
ag466
aa(lp1077
g466
ag466
ag466
ag466
aa(lp1078
g466
ag473
ag466
ag466
aa(lp1079
g466
ag466
ag466
ag466
aaa(lp1080
(lp1081
g466
ag466
ag466
ag466
aa(lp1082
g466
ag466
ag470
ag466
aa(lp1083
g466
ag466
ag466
ag466
aa(lp1084
g466
ag466
ag466
ag466
aa(lp1085
g466
ag466
ag466
ag466
aa(lp1086
g467
ag466
ag466
ag466
aa(lp1087
g466
ag466
ag466
ag466
aa(lp1088
g470
ag466
ag466
ag466
aa(lp1089
g466
ag466
ag466
ag466
aa(lp1090
g473
ag466
ag466
ag466
aa(lp1091
g466
ag466
ag466
ag466
aa(lp1092
g466
ag467
ag466
ag466
aa(lp1093
g466
ag466
ag466
ag466
aa(lp1094
g466
ag470
ag466
ag466
aa(lp1095
g466
ag466
ag466
ag466
aa(lp1096
g466
ag473
ag466
ag466
aa(lp1097
g466
ag466
ag466
ag466
aa(lp1098
g466
ag466
ag470
ag466
aa(lp1099
g466
ag466
ag466
ag466
aa(lp1100
g467
ag466
ag466
ag466
aa(lp1101
g466
ag466
ag466
ag466
aa(lp1102
g470
ag466
ag466
ag466
aa(lp1103
g466
ag466
ag466
ag466
aa(lp1104
g473
ag466
ag466
ag466
aa(lp1105
g466
ag466
ag466
ag466
aa(lp1106
g466
ag467
ag466
ag466
aa(lp1107
g466
ag466
ag466
ag466
aa(lp1108
g466
ag470
ag466
ag466
aa(lp1109
g466
ag466
ag466
ag466
aa(lp1110
g466
ag473
ag466
ag466
aa(lp1111
g466
ag466
ag466
ag466
aa(lp1112
g466
ag466
ag470
ag466
aa(lp1113
g466
ag466
ag466
ag466
aaa(lp1114
(lp1115
g466
ag466
ag466
ag466
aa(lp1116
g466
ag466
ag466
ag512
aa(lp1117
g466
ag466
ag466
ag466
aa(lp1118
g858
ag500
ag500
ag500
aa(lp1119
g466
ag466
ag466
ag466
aa(lp1120
g473
ag466
ag466
ag466
aa(lp1121
g466
ag466
ag466
ag466
aa(lp1122
g466
ag467
ag466
ag466
aa(lp1123
g466
ag466
ag466
ag466
aa(lp1124
g466
ag470
ag466
ag466
aa(lp1125
g466
ag466
ag466
ag466
aa(lp1126
g466
ag473
ag466
ag466
aa(lp1127
g466
ag466
ag466
ag466
aa(lp1128
g466
ag466
ag470
ag466
aa(lp1129
g466
ag466
ag466
ag466
aa(lp1130
g466
ag466
ag473
ag466
aa(lp1131
g466
ag466
ag466
ag466
aa(lp1132
g466
ag466
ag466
ag849
aa(lp1133
g466
ag466
ag466
ag466
aa(lp1134
g942
ag500
ag500
ag500
aa(lp1135
g466
ag466
ag466
ag466
aa(lp1136
g500
aS'3'
p1137
ag500
ag500
aa(lp1138
g466
ag466
ag466
ag466
aa(lp1139
g500
ag858
ag500
ag500
aa(lp1140
g466
ag466
ag466
ag466
aa(lp1141
g500
ag942
ag500
ag500
aa(lp1142
g466
ag466
ag466
ag466
aa(lp1143
g500
ag500
ag858
ag500
aa(lp1144
g466
ag466
ag466
ag466
aa(lp1145
g500
ag500
ag942
ag500
aa(lp1146
g466
ag466
ag466
ag466
aa(lp1147
g500
ag500
ag500
ag861
aa(lp1148
g466
ag466
ag466
ag466
aaa(lp1149
(lp1150
g466
ag466
ag466
ag466
aa(lp1151
g466
ag466
ag466
ag470
aa(lp1152
g466
ag466
ag466
ag466
aa(lp1153
g466
ag467
ag466
ag466
aa(lp1154
g466
ag466
ag466
ag466
aa(lp1155
g466
ag470
ag466
ag466
aa(lp1156
g466
ag466
ag466
ag466
aa(lp1157
g466
ag473
ag466
ag466
aa(lp1158
g466
ag466
ag466
ag466
aa(lp1159
g466
ag470
ag466
ag466
aa(lp1160
g466
ag466
ag466
ag466
aa(lp1161
g473
ag466
ag466
ag466
aa(lp1162
g466
ag466
ag466
ag466
aa(lp1163
g466
ag466
ag470
ag466
aa(lp1164
g466
ag466
ag466
ag466
aa(lp1165
g473
ag466
ag466
ag466
aa(lp1166
g466
ag466
ag466
ag466
aa(lp1167
g466
ag473
ag466
ag466
aa(lp1168
g466
ag466
ag466
ag466
aa(lp1169
g473
ag466
ag466
ag466
aa(lp1170
g466
ag466
ag466
ag466
aa(lp1171
g466
ag470
ag466
ag466
aa(lp1172
g466
ag466
ag466
ag466
aa(lp1173
g473
ag466
ag466
ag466
aa(lp1174
g466
ag466
ag466
ag466
aa(lp1175
g466
ag467
ag466
ag466
aa(lp1176
g466
ag466
ag466
ag466
aa(lp1177
g473
ag466
ag466
ag466
aa(lp1178
g466
ag466
ag466
ag466
aa(lp1179
g466
ag473
ag466
ag466
aa(lp1180
g466
ag466
ag466
ag466
aa(lp1181
g473
ag466
ag466
ag466
aa(lp1182
g466
ag466
ag466
ag466
aaa(lp1183
(lp1184
g466
ag466
ag466
ag466
aa(lp1185
g466
ag470
ag466
ag466
aa(lp1186
g466
ag466
ag466
ag466
aa(lp1187
g473
ag466
ag466
ag466
aa(lp1188
g466
ag466
ag466
ag466
aa(lp1189
g466
ag466
ag470
ag466
aa(lp1190
g466
ag466
ag466
ag466
aa(lp1191
g473
ag466
ag466
ag466
aa(lp1192
g466
ag466
ag466
ag466
aa(lp1193
g466
ag467
ag466
ag466
aa(lp1194
g466
ag466
ag466
ag466
aa(lp1195
g473
ag466
ag466
ag466
aa(lp1196
g466
ag466
ag466
ag466
aa(lp1197
g466
ag473
ag466
ag466
aa(lp1198
g466
ag466
ag466
ag466
aa(lp1199
g473
ag466
ag466
ag466
aa(lp1200
g466
ag466
ag466
ag466
aa(lp1201
g466
ag470
ag466
ag466
aa(lp1202
g466
ag466
ag466
ag466
aa(lp1203
g473
ag466
ag466
ag466
aa(lp1204
g466
ag466
ag466
ag466
aa(lp1205
g466
ag466
ag470
ag466
aa(lp1206
g466
ag466
ag466
ag466
aa(lp1207
g473
ag466
ag466
ag466
aa(lp1208
g466
ag466
ag466
ag466
aa(lp1209
g466
ag467
ag466
ag466
aa(lp1210
g466
ag466
ag466
ag466
aa(lp1211
g473
ag466
ag466
ag466
aa(lp1212
g466
ag466
ag466
ag466
aa(lp1213
g466
ag473
ag466
ag466
aa(lp1214
g466
ag466
ag466
ag466
aa(lp1215
g473
ag466
ag466
ag466
aa(lp1216
g466
ag466
ag466
ag466
aaa(lp1217
(lp1218
g466
ag466
ag466
ag466
aa(lp1219
g466
ag470
ag466
ag466
aa(lp1220
g466
ag466
ag466
ag466
aa(lp1221
g473
ag466
ag466
ag466
aa(lp1222
g466
ag466
ag466
ag466
aa(lp1223
g466
ag466
ag470
ag466
aa(lp1224
g466
ag466
ag466
ag466
aa(lp1225
g473
ag466
ag466
ag466
aa(lp1226
g466
ag466
ag466
ag466
aa(lp1227
g466
ag473
ag466
ag466
aa(lp1228
g466
ag466
ag466
ag466
aa(lp1229
g473
ag466
ag466
ag466
aa(lp1230
g466
ag466
ag466
ag466
aa(lp1231
g466
ag470
ag466
ag466
aa(lp1232
g466
ag466
ag466
ag466
aa(lp1233
g473
ag466
ag466
ag466
aa(lp1234
g466
ag466
ag466
ag466
aa(lp1235
g466
ag467
ag466
ag466
aa(lp1236
g466
ag466
ag466
ag466
aa(lp1237
g473
ag466
ag466
ag466
aa(lp1238
g466
ag466
ag466
ag466
aa(lp1239
g466
ag512
ag466
ag466
aa(lp1240
g466
ag466
ag466
ag466
aa(lp1241
g473
ag466
ag466
ag466
aa(lp1242
g466
ag466
ag466
ag466
aa(lp1243
g466
ag545
ag466
ag466
aa(lp1244
g466
ag466
ag466
ag466
aa(lp1245
g473
ag466
ag466
ag466
aa(lp1246
g466
ag466
ag466
ag466
aa(lp1247
g466
ag466
ag470
ag466
aa(lp1248
g466
ag466
ag466
ag466
aa(lp1249
g473
ag466
ag466
ag466
aa(lp1250
g466
ag466
ag466
ag466
aaa(lp1251
(lp1252
g466
ag466
ag466
ag466
aa(lp1253
g466
ag512
ag466
ag466
aa(lp1254
g466
ag466
ag466
ag466
aa(lp1255
g473
ag466
ag466
ag466
aa(lp1256
g466
ag466
ag466
ag466
aa(lp1257
g466
ag545
ag466
ag466
aa(lp1258
g466
ag466
ag466
ag466
aa(lp1259
g473
ag466
ag466
ag466
aa(lp1260
g466
ag466
ag466
ag466
aa(lp1261
g466
ag548
ag466
ag466
aa(lp1262
g466
ag466
ag466
ag466
aa(lp1263
g473
ag466
ag466
ag466
aa(lp1264
g466
ag466
ag466
ag466
aa(lp1265
g466
ag466
ag470
ag466
aa(lp1266
g466
ag466
ag466
ag466
aa(lp1267
g473
ag466
ag466
ag466
aa(lp1268
g466
ag466
ag466
ag466
aa(lp1269
g466
ag545
ag466
ag466
aa(lp1270
g466
ag466
ag466
ag466
aa(lp1271
g473
ag466
ag466
ag466
aa(lp1272
g466
ag466
ag466
ag466
aa(lp1273
g466
ag548
ag466
ag466
aa(lp1274
g466
ag466
ag466
ag466
aa(lp1275
g473
ag466
ag466
ag466
aa(lp1276
g466
ag466
ag466
ag466
aa(lp1277
S'--'
p1278
aS'10'
p1279
aS'--'
p1280
aS'--'
p1281
aa(lp1282
g466
ag466
ag466
ag466
aa(lp1283
g473
ag466
ag466
ag466
aa(lp1284
g466
ag466
ag466
ag466
aa(lp1285
g466
ag545
ag466
ag466
aa(lp1286
g466
ag466
ag466
ag466
aa(lp1287
g473
ag466
ag466
ag466
aa(lp1288
g466
ag466
ag466
ag466
aaa(lp1289
(lp1290
g466
ag466
ag466
ag466
aa(lp1291
g466
ag548
ag466
ag466
aa(lp1292
g466
ag466
ag466
ag466
aa(lp1293
g473
ag466
ag466
ag466
aa(lp1294
g466
ag466
ag466
ag466
aa(lp1295
g466
ag545
ag466
ag466
aa(lp1296
g466
ag466
ag466
ag466
aa(lp1297
g473
ag466
ag466
ag466
aa(lp1298
g466
ag466
ag466
ag466
aa(lp1299
g466
ag548
ag466
ag466
aa(lp1300
g466
ag466
ag466
ag466
aa(lp1301
g473
ag466
ag466
ag466
aa(lp1302
g466
ag466
ag466
ag466
aa(lp1303
g466
ag512
ag466
ag466
aa(lp1304
g466
ag466
ag466
ag466
aa(lp1305
g473
ag466
ag466
ag466
aa(lp1306
g466
ag466
ag466
ag466
aa(lp1307
g466
ag545
ag466
ag466
aa(lp1308
g466
ag466
ag466
ag466
aa(lp1309
g473
ag466
ag466
ag466
aa(lp1310
g466
ag466
ag466
ag466
aa(lp1311
g466
ag512
ag466
ag466
aa(lp1312
g466
ag466
ag466
ag466
aa(lp1313
g473
ag466
ag466
ag466
aa(lp1314
g466
ag466
ag466
ag466
aa(lp1315
g466
ag545
ag466
ag466
aa(lp1316
g466
ag466
ag466
ag466
aa(lp1317
g473
ag466
ag466
ag466
aa(lp1318
g466
ag466
ag466
ag466
aa(lp1319
g466
ag467
ag466
ag466
aa(lp1320
g466
ag466
ag466
ag466
aa(lp1321
g473
ag466
ag466
ag466
aa(lp1322
g466
ag466
ag466
ag466
aaa(lp1323
(lp1324
g466
ag466
ag466
ag466
aa(lp1325
g466
ag512
ag466
ag466
aa(lp1326
g466
ag466
ag466
ag466
aa(lp1327
g473
ag466
ag466
ag466
aa(lp1328
g466
ag466
ag466
ag466
aa(lp1329
g466
ag467
ag466
ag466
aa(lp1330
g466
ag466
ag466
ag466
aa(lp1331
g473
ag466
ag466
ag466
aa(lp1332
g466
ag466
ag466
ag466
aa(lp1333
g466
ag512
ag466
ag466
aa(lp1334
g466
ag466
ag466
ag466
aa(lp1335
g473
ag466
ag466
ag466
aa(lp1336
g466
ag466
ag466
ag466
aa(lp1337
g466
ag470
ag466
ag466
aa(lp1338
g466
ag466
ag466
ag466
aa(lp1339
g473
ag466
ag466
ag466
aa(lp1340
g466
ag466
ag466
ag466
aa(lp1341
g466
ag467
ag466
ag466
aa(lp1342
g466
ag466
ag466
ag466
aa(lp1343
g473
ag466
ag466
ag466
aa(lp1344
g466
ag466
ag466
ag466
aa(lp1345
g466
ag470
ag466
ag466
aa(lp1346
g466
ag466
ag466
ag466
aa(lp1347
g473
ag466
ag466
ag466
aa(lp1348
g466
ag466
ag466
ag466
aa(lp1349
g466
ag467
ag466
ag466
aa(lp1350
g466
ag466
ag466
ag466
aa(lp1351
g473
ag466
ag466
ag466
aa(lp1352
g466
ag466
ag466
ag466
aa(lp1353
g466
ag473
ag466
ag466
aa(lp1354
g466
ag466
ag466
ag466
aa(lp1355
g473
ag466
ag466
ag466
aa(lp1356
g466
ag466
ag466
ag466
aaa(lp1357
(lp1358
g466
ag466
ag466
ag466
aa(lp1359
g466
ag470
ag466
ag466
aa(lp1360
g466
ag466
ag466
ag466
aa(lp1361
g473
ag466
ag466
ag466
aa(lp1362
g466
ag466
ag466
ag466
aa(lp1363
g466
ag466
ag470
ag466
aa(lp1364
g466
ag466
ag466
ag466
aa(lp1365
g466
ag473
ag466
ag466
aa(lp1366
g466
ag466
ag466
ag466
aa(lp1367
g500
aS'1'
p1368
ag500
ag500
aa(lp1369
g466
ag466
ag466
ag466
aa(lp1370
g500
ag500
ag858
ag500
aa(lp1371
g466
ag466
ag466
ag466
aa(lp1372
g500
ag858
ag500
ag500
aa(lp1373
g500
ag500
ag500
ag500
aa(lp1374
g500
ag500
ag858
ag500
aa(lp1375
g466
ag466
ag466
ag466
aa(lp1376
g500
ag1137
ag500
ag500
aa(lp1377
g466
ag466
ag466
ag466
aa(lp1378
g500
ag500
ag858
ag500
aa(lp1379
g466
ag466
ag466
ag466
aa(lp1380
g500
ag861
ag500
ag500
aa(lp1381
g466
ag466
ag466
ag466
aa(lp1382
g500
ag500
ag858
ag500
aa(lp1383
g466
ag466
ag466
ag466
aa(lp1384
g942
ag500
ag500
ag500
aa(lp1385
g466
ag466
ag466
ag466
aa(lp1386
g500
ag500
ag858
ag500
aa(lp1387
g466
ag466
ag466
ag466
aa(lp1388
g1368
ag500
ag500
ag500
aa(lp1389
g466
ag466
ag466
ag466
aa(lp1390
g500
ag500
ag858
ag500
aa(lp1391
g500
ag500
ag500
ag500
aaa(lp1392
(lp1393
g466
ag466
ag466
ag466
aa(lp1394
g858
ag500
ag500
ag500
aa(lp1395
g466
ag466
ag466
ag466
aa(lp1396
g500
ag500
ag858
ag500
aa(lp1397
g466
ag466
ag466
ag466
aa(lp1398
g1137
ag500
ag500
ag500
aa(lp1399
g466
ag466
ag466
ag466
aa(lp1400
g500
ag500
ag858
ag500
aa(lp1401
g466
ag466
ag466
ag466
aa(lp1402
g861
ag500
ag500
ag500
aa(lp1403
g466
ag466
ag466
ag466
aa(lp1404
g500
ag500
ag858
ag500
aa(lp1405
g466
ag466
ag466
ag466
aa(lp1406
g913
ag500
ag500
ag500
aa(lp1407
g466
ag466
ag466
ag466
aa(lp1408
g500
ag500
ag858
ag500
aa(lp1409
g466
ag466
ag466
ag466
aa(lp1410
g506
ag500
ag500
ag500
aa(lp1411
g466
ag466
ag466
ag466
aa(lp1412
g500
ag500
ag858
ag500
aa(lp1413
g466
ag466
ag466
ag466
aa(lp1414
g545
ag466
ag466
ag466
aa(lp1415
g466
ag466
ag466
ag466
aa(lp1416
g466
ag466
ag466
ag545
aa(lp1417
g466
ag466
ag466
ag466
aa(lp1418
g548
ag466
ag466
ag466
aa(lp1419
g466
ag466
ag466
ag466
aa(lp1420
g466
ag466
ag466
ag545
aa(lp1421
g466
ag466
ag466
ag466
aa(lp1422
g743
ag466
ag466
ag466
aa(lp1423
g466
ag466
ag466
ag466
aa(lp1424
g466
ag466
ag466
ag545
aa(lp1425
g466
ag466
ag466
ag466
aaa(lp1426
(lp1427
g466
ag466
ag466
ag466
aa(lp1428
S'10'
p1429
aS'--'
p1430
aS'--'
p1431
aS'--'
p1432
aa(lp1433
g466
ag466
ag466
ag466
aa(lp1434
g466
ag545
ag466
ag466
aa(lp1435
g466
ag466
ag466
ag466
aa(lp1436
g466
ag466
ag466
ag545
aa(lp1437
g466
ag466
ag466
ag466
aa(lp1438
g466
ag545
ag466
ag466
aa(lp1439
g466
ag466
ag466
ag466
aa(lp1440
S'10'
p1441
aS'--'
p1442
aS'--'
p1443
aS'--'
p1444
aa(lp1445
g466
ag466
ag466
ag466
aa(lp1446
g466
ag545
ag466
ag466
aa(lp1447
g466
ag466
ag466
ag466
aa(lp1448
S'10'
p1449
aS'--'
p1450
aS'--'
p1451
aS'--'
p1452
aa(lp1453
g466
ag466
ag466
ag466
aa(lp1454
g466
ag545
ag466
ag466
aa(lp1455
g466
ag466
ag466
ag466
aa(lp1456
S'10'
p1457
aS'--'
p1458
aS'--'
p1459
aS'--'
p1460
aa(lp1461
g466
ag466
ag466
ag466
aa(lp1462
g466
ag545
ag466
ag466
aa(lp1463
g466
ag466
ag466
ag466
aa(lp1464
g466
ag466
ag466
ag545
aa(lp1465
g466
ag466
ag466
ag466
aa(lp1466
g466
ag545
ag466
ag466
aa(lp1467
g466
ag466
ag466
ag466
aa(lp1468
S'10'
p1469
aS'--'
p1470
aS'--'
p1471
aS'--'
p1472
aa(lp1473
g466
ag466
ag466
ag466
aa(lp1474
g466
ag545
ag466
ag466
aa(lp1475
g466
ag466
ag466
ag466
aa(lp1476
S'10'
p1477
aS'--'
p1478
aS'--'
p1479
aS'--'
p1480
aa(lp1481
g466
ag466
ag466
ag466
aa(lp1482
g466
ag545
ag466
ag466
aa(lp1483
g466
ag466
ag466
ag466
aaa(lp1484
(lp1485
g466
ag466
ag466
ag466
aa(lp1486
S'10'
p1487
aS'--'
p1488
aS'--'
p1489
aS'--'
p1490
aa(lp1491
g466
ag466
ag466
ag466
aa(lp1492
g466
ag466
ag743
ag466
aa(lp1493
g466
ag466
ag466
ag466
aa(lp1494
g466
ag466
ag466
ag545
aa(lp1495
g466
ag466
ag466
ag466
aa(lp1496
g466
ag466
ag743
ag466
aa(lp1497
g466
ag466
ag466
ag466
aa(lp1498
S'10'
p1499
aS'--'
p1500
aS'--'
p1501
aS'--'
p1502
aa(lp1503
g466
ag466
ag466
ag466
aa(lp1504
g466
ag466
ag743
ag466
aa(lp1505
g466
ag466
ag466
ag466
aa(lp1506
S'10'
p1507
aS'--'
p1508
aS'--'
p1509
aS'--'
p1510
aa(lp1511
g466
ag466
ag466
ag466
aa(lp1512
g466
ag466
ag743
ag466
aa(lp1513
g466
ag466
ag466
ag466
aa(lp1514
S'10'
p1515
aS'--'
p1516
aS'--'
p1517
aS'--'
p1518
aa(lp1519
g466
ag466
ag466
ag466
aa(lp1520
g466
ag466
ag743
ag466
aa(lp1521
g466
ag466
ag466
ag466
aa(lp1522
g466
ag466
ag466
ag545
aa(lp1523
g466
ag466
ag466
ag466
aa(lp1524
g466
ag466
ag743
ag466
aa(lp1525
g466
ag466
ag466
ag466
aa(lp1526
S'10'
p1527
aS'--'
p1528
aS'--'
p1529
aS'--'
p1530
aa(lp1531
g466
ag466
ag466
ag466
aa(lp1532
g466
ag466
ag743
ag466
aa(lp1533
g466
ag466
ag466
ag466
aa(lp1534
S'10'
p1535
aS'--'
p1536
aS'--'
p1537
aS'--'
p1538
aa(lp1539
g466
ag466
ag466
ag466
aa(lp1540
g466
ag466
ag743
ag466
aa(lp1541
g466
ag466
ag466
ag466
aaa(lp1542
(lp1543
g466
ag466
ag466
ag466
aa(lp1544
g743
ag466
ag466
ag466
aa(lp1545
g466
ag466
ag466
ag466
aa(lp1546
g466
ag548
ag466
ag466
aa(lp1547
g466
ag466
ag466
ag466
aa(lp1548
g466
ag466
ag466
ag545
aa(lp1549
g466
ag466
ag466
ag466
aa(lp1550
g466
ag548
ag466
ag466
aa(lp1551
g466
ag466
ag466
ag466
aa(lp1552
g743
ag466
ag466
ag466
aa(lp1553
g466
ag466
ag466
ag466
aa(lp1554
g466
ag548
ag466
ag466
aa(lp1555
g466
ag466
ag466
ag466
aa(lp1556
g743
ag466
ag466
ag466
aa(lp1557
g466
ag466
ag466
ag466
aa(lp1558
g466
ag548
ag466
ag466
aa(lp1559
g466
ag466
ag466
ag466
aa(lp1560
g743
ag466
ag466
ag466
aa(lp1561
g466
ag466
ag466
ag466
aa(lp1562
g466
ag548
ag466
ag466
aa(lp1563
g466
ag466
ag466
ag466
aa(lp1564
g466
ag466
ag466
ag545
aa(lp1565
g466
ag466
ag466
ag466
aa(lp1566
g466
ag548
ag466
ag466
aa(lp1567
g466
ag466
ag466
ag466
aa(lp1568
g743
ag466
ag466
ag466
aa(lp1569
g466
ag466
ag466
ag466
aa(lp1570
g466
ag548
ag466
ag466
aa(lp1571
g466
ag466
ag466
ag466
aa(lp1572
g743
ag466
ag466
ag466
aa(lp1573
g466
ag466
ag466
ag466
aa(lp1574
g466
ag548
ag466
ag466
aa(lp1575
g466
ag466
ag466
ag466
aaa(lp1576
(lp1577
g466
ag466
ag466
ag466
aa(lp1578
g500
ag500
ag500
ag942
aa(lp1579
g466
ag466
ag466
ag466
aa(lp1580
g466
ag466
ag466
ag466
aa(lp1581
g466
ag466
ag466
ag466
aa(lp1582
g466
ag466
ag466
ag466
aa(lp1583
g466
ag466
ag466
ag466
aa(lp1584
S'10'
p1585
aS'7-'
p1586
aS'7-'
p1587
aS'--'
p1588
aa(lp1589
g466
ag466
ag466
ag466
aa(lp1590
g466
ag466
ag466
ag466
aa(lp1591
g466
ag466
ag466
ag466
aa(lp1592
g466
ag466
ag466
ag466
aa(lp1593
g466
ag466
ag466
ag466
aaa.