(lp0
(lp1
(lp2
S'-'
p3
ag3
ag3
ag3
aa(lp4
g3
ag3
ag3
aS'0'
p5
aa(lp6
g3
ag3
ag3
ag3
aa(lp7
g3
ag3
aS'2'
p8
ag3
aa(lp9
g3
ag3
ag3
ag3
aa(lp10
g8
ag3
ag3
ag3
aa(lp11
g3
ag3
ag3
ag3
aa(lp12
g5
ag3
ag3
ag3
aa(lp13
g3
ag3
ag3
ag3
aa(lp14
g8
ag3
ag3
ag3
aa(lp15
g3
ag3
ag3
ag3
aa(lp16
g3
ag3
ag8
ag3
aa(lp17
g3
ag3
ag3
ag3
aa(lp18
g8
ag3
ag3
ag3
aa(lp19
g3
ag3
ag3
ag3
aa(lp20
g3
ag3
ag8
ag3
aa(lp21
g3
ag3
ag3
ag3
aa(lp22
g3
ag3
ag3
ag5
aa(lp23
g3
ag3
ag3
ag3
aa(lp24
g3
ag3
ag8
ag3
aa(lp25
g3
ag3
ag3
ag3
aa(lp26
g8
ag3
ag3
ag3
aa(lp27
g3
ag3
ag3
ag3
aa(lp28
g5
ag3
ag3
ag3
aa(lp29
g3
ag3
ag3
ag3
aa(lp30
g8
ag3
ag3
ag3
aa(lp31
g3
ag3
ag3
ag3
aa(lp32
g3
ag3
ag8
ag3
aa(lp33
g3
ag3
ag3
ag3
aa(lp34
g8
ag3
ag3
ag3
aa(lp35
g3
ag3
ag3
ag3
aa(lp36
g3
ag3
ag8
ag3
aa(lp37
g3
ag3
ag3
ag3
aaa(lp38
(lp39
g3
ag3
ag3
ag3
aa(lp40
g3
ag3
ag3
ag5
aa(lp41
g3
ag3
ag3
ag3
aa(lp42
g3
ag5
ag3
ag3
aa(lp43
g3
ag3
ag3
ag3
aa(lp44
S'3'
p45
ag3
ag3
ag3
aa(lp46
g3
ag3
ag3
ag3
aa(lp47
g8
ag3
ag3
ag3
aa(lp48
g3
ag3
ag3
ag3
aa(lp49
g45
ag3
ag3
ag3
aa(lp50
g3
ag3
ag3
ag3
aa(lp51
g3
ag5
ag3
ag3
aa(lp52
g3
ag3
ag3
ag3
aa(lp53
g45
ag3
ag3
ag3
aa(lp54
g3
ag3
ag3
ag3
aa(lp55
g3
ag5
ag3
ag3
aa(lp56
g3
ag3
ag3
ag3
aa(lp57
g3
ag3
ag3
ag5
aa(lp58
g3
ag3
ag3
ag3
aa(lp59
g3
ag5
ag3
ag3
aa(lp60
g3
ag3
ag3
ag3
aa(lp61
g45
ag3
ag3
ag3
aa(lp62
g3
ag3
ag3
ag3
aa(lp63
g8
ag3
ag3
ag3
aa(lp64
g3
ag3
ag3
ag3
aa(lp65
g45
ag3
ag3
ag3
aa(lp66
g3
ag3
ag3
ag3
aa(lp67
g3
ag5
ag3
ag3
aa(lp68
g3
ag3
ag3
ag3
aa(lp69
g45
ag3
ag3
ag3
aa(lp70
g3
ag3
ag3
ag3
aa(lp71
g3
ag5
ag3
ag3
aa(lp72
g3
ag3
ag3
ag3
aaa(lp73
(lp74
g3
ag3
ag3
ag3
aa(lp75
g3
ag3
ag3
ag5
aa(lp76
g3
ag3
ag3
ag3
aa(lp77
g3
ag8
ag3
ag3
aa(lp78
g3
ag3
ag3
ag3
aa(lp79
g45
ag3
ag3
ag3
aa(lp80
g3
ag3
ag3
ag3
aa(lp81
g8
ag3
ag3
ag3
aa(lp82
g3
ag3
ag3
ag3
aa(lp83
g45
ag3
ag3
ag3
aa(lp84
g3
ag3
ag3
ag3
aa(lp85
g3
ag8
ag3
ag3
aa(lp86
g3
ag3
ag3
ag3
aa(lp87
g45
ag3
ag3
ag3
aa(lp88
g3
ag3
ag3
ag3
aa(lp89
g3
ag8
ag3
ag3
aa(lp90
g3
ag3
ag3
ag3
aa(lp91
g3
ag3
ag3
ag5
aa(lp92
g3
ag3
ag3
ag3
aa(lp93
g3
ag8
ag3
ag3
aa(lp94
g3
ag3
ag3
ag3
aa(lp95
g45
ag3
ag3
ag3
aa(lp96
g3
ag3
ag3
ag3
aa(lp97
g8
ag3
ag3
ag3
aa(lp98
g3
ag3
ag3
ag3
aa(lp99
g45
ag3
ag3
ag3
aa(lp100
g3
ag3
ag3
ag3
aa(lp101
g3
ag8
ag3
ag3
aa(lp102
g3
ag3
ag3
ag3
aa(lp103
g45
ag3
ag3
ag3
aa(lp104
g3
ag3
ag3
ag3
aa(lp105
g3
ag8
ag3
ag3
aa(lp106
g3
ag3
ag3
ag3
aaa(lp107
(lp108
g3
ag3
ag3
ag3
aa(lp109
g3
ag3
ag3
ag5
aa(lp110
g3
ag3
ag3
ag3
aa(lp111
g3
ag45
ag3
ag3
aa(lp112
g3
ag3
ag3
ag3
aa(lp113
g8
ag3
ag3
ag3
aa(lp114
g3
ag3
ag3
ag3
aa(lp115
g5
ag3
ag3
ag3
aa(lp116
g3
ag3
ag3
ag3
aa(lp117
g8
ag3
ag3
ag3
aa(lp118
g3
ag3
ag3
ag3
aa(lp119
g3
ag45
ag3
ag3
aa(lp120
g3
ag3
ag3
ag3
aa(lp121
g8
ag3
ag3
ag3
aa(lp122
g3
ag3
ag3
ag3
aa(lp123
g3
ag45
ag3
ag3
aa(lp124
g3
ag3
ag3
ag3
aa(lp125
g3
ag3
ag3
ag5
aa(lp126
g3
ag3
ag3
ag3
aa(lp127
g3
ag45
ag3
ag3
aa(lp128
g3
ag3
ag3
ag3
aa(lp129
g8
ag3
ag3
ag3
aa(lp130
g3
ag3
ag3
ag3
aa(lp131
g5
ag3
ag3
ag3
aa(lp132
g3
ag3
ag3
ag3
aa(lp133
g8
ag3
ag3
ag3
aa(lp134
g3
ag3
ag3
ag3
aa(lp135
g3
ag45
ag3
ag3
aa(lp136
g3
ag3
ag3
ag3
aa(lp137
g8
ag3
ag3
ag3
aa(lp138
g3
ag3
ag3
ag3
aa(lp139
g3
ag8
ag3
ag3
aa(lp140
g3
ag3
ag3
ag3
aaa(lp141
(lp142
g3
ag3
ag3
ag3
aa(lp143
g3
ag3
ag3
ag5
aa(lp144
g3
ag3
ag3
ag3
aa(lp145
g3
ag5
ag3
ag3
aa(lp146
g3
ag3
ag3
ag3
aa(lp147
g8
ag3
ag3
ag3
aa(lp148
g3
ag3
ag3
ag3
aa(lp149
g5
ag3
ag3
ag3
aa(lp150
g3
ag3
ag3
ag3
aa(lp151
g8
ag3
ag3
ag3
aa(lp152
g3
ag3
ag3
ag3
aa(lp153
g3
ag45
ag3
ag3
aa(lp154
g3
ag3
ag3
ag3
aa(lp155
g3
ag8
ag3
ag3
aa(lp156
g3
ag3
ag3
ag3
aa(lp157
g3
ag45
ag3
ag3
aa(lp158
g3
ag3
ag3
ag3
aa(lp159
g3
ag3
aS'4'
p160
ag3
aa(lp161
g3
ag3
ag3
ag3
aa(lp162
g3
ag45
ag3
ag3
aa(lp163
g3
ag3
ag3
ag3
aa(lp164
g3
ag8
ag3
ag3
aa(lp165
g3
ag3
ag3
ag3
aa(lp166
S'-'
p167
aS'3'
p168
ag167
ag167
aa(lp169
g3
ag3
ag3
ag3
aa(lp170
g167
ag167
ag167
aS'4'
p171
aa(lp172
g3
ag3
ag3
ag3
aa(lp173
g167
ag167
ag167
aS'7'
p174
aa(lp175
g3
ag3
ag3
ag3
aa(lp176
g167
ag167
ag167
aS'5'
p177
aa(lp178
g3
ag3
ag3
ag3
aa(lp179
g167
ag167
ag167
ag171
aa(lp180
g3
ag3
ag3
ag3
aaa(lp181
(lp182
g3
ag3
ag3
ag3
aa(lp183
g3
ag3
aS'1'
p184
ag3
aa(lp185
g3
ag3
ag3
ag3
aa(lp186
g3
ag45
ag3
ag3
aa(lp187
g3
ag3
ag3
ag3
aa(lp188
g5
ag3
ag3
ag3
aa(lp189
g3
ag3
ag3
ag3
aa(lp190
g3
ag45
ag3
ag3
aa(lp191
g3
ag3
ag3
ag3
aa(lp192
g5
ag3
ag3
ag3
aa(lp193
g3
ag3
ag3
ag3
aa(lp194
g3
ag45
ag3
ag3
aa(lp195
g3
ag3
ag3
ag3
aa(lp196
g5
ag3
ag3
ag3
aa(lp197
g3
ag3
ag3
ag3
aa(lp198
g3
ag45
ag3
ag3
aa(lp199
g3
ag3
ag3
ag3
aa(lp200
g3
ag3
ag184
ag3
aa(lp201
g3
ag3
ag3
ag3
aa(lp202
g3
ag45
ag3
ag3
aa(lp203
g3
ag3
ag3
ag3
aa(lp204
g5
ag3
ag3
ag3
aa(lp205
g3
ag3
ag3
ag3
aa(lp206
g3
ag45
ag3
ag3
aa(lp207
g3
ag3
ag3
ag3
aa(lp208
g5
ag3
ag3
ag3
aa(lp209
g3
ag3
ag3
ag3
aa(lp210
g3
ag45
ag3
ag3
aa(lp211
g3
ag3
ag3
ag3
aa(lp212
g5
ag3
ag3
ag3
aa(lp213
g3
ag3
ag3
ag3
aa(lp214
g3
ag45
ag3
ag3
aa(lp215
g3
ag3
ag3
ag3
aaa(lp216
(lp217
g3
ag3
ag3
ag3
aa(lp218
g3
ag8
ag3
ag3
aa(lp219
g3
ag3
ag3
ag3
aa(lp220
g3
aS'5'
p221
ag3
ag3
aa(lp222
g3
ag3
ag3
ag3
aa(lp223
g221
ag3
ag3
ag3
aa(lp224
g3
ag3
ag3
ag3
aa(lp225
g160
ag3
ag3
ag3
aa(lp226
g3
ag3
ag3
ag3
aa(lp227
g221
ag3
ag3
ag3
aa(lp228
g3
ag3
ag3
ag3
aa(lp229
g5
ag3
ag3
ag3
aa(lp230
g3
ag3
ag3
ag3
aa(lp231
g3
ag45
ag3
ag3
aa(lp232
g3
ag3
ag3
ag3
aa(lp233
g5
ag3
ag3
ag3
aa(lp234
g3
ag3
ag3
ag3
aa(lp235
g3
ag8
ag3
ag3
aa(lp236
g3
ag3
ag3
ag3
aa(lp237
g5
ag3
ag3
ag3
aa(lp238
g3
ag3
ag3
ag3
aa(lp239
g3
ag45
ag3
ag3
aa(lp240
g3
ag3
ag3
ag3
aa(lp241
g5
ag3
ag3
ag3
aa(lp242
g3
ag3
ag3
ag3
aa(lp243
g3
ag3
ag8
ag3
aa(lp244
g3
ag3
ag3
ag3
aa(lp245
g3
ag8
ag3
ag3
aa(lp246
g3
ag3
ag3
ag3
aa(lp247
g3
ag5
ag3
ag3
aa(lp248
g3
ag3
ag3
ag3
aa(lp249
g3
ag3
ag8
ag3
aa(lp250
g3
ag3
ag3
ag3
aaa(lp251
(lp252
g3
ag3
ag3
ag3
aa(lp253
g3
ag3
ag160
ag3
aa(lp254
g3
ag3
ag3
ag3
aa(lp255
g3
ag3
ag160
ag3
aa(lp256
g3
ag3
ag3
ag3
aa(lp257
g3
ag45
ag3
ag3
aa(lp258
g3
ag3
ag3
ag3
aa(lp259
g3
ag8
ag3
ag3
aa(lp260
g3
ag3
ag3
ag3
aa(lp261
g3
ag45
ag3
ag3
aa(lp262
g3
ag3
ag3
ag3
aa(lp263
g3
ag3
ag160
ag3
aa(lp264
g3
ag3
ag3
ag3
aa(lp265
g3
ag45
ag3
ag3
aa(lp266
g3
ag3
ag3
ag3
aa(lp267
g3
ag3
ag160
ag3
aa(lp268
g3
ag3
ag3
ag3
aa(lp269
g3
ag3
ag160
ag3
aa(lp270
g3
ag3
ag3
ag3
aa(lp271
g3
ag3
ag160
ag3
aa(lp272
g3
ag3
ag3
ag3
aa(lp273
g3
ag45
ag3
ag3
aa(lp274
g3
ag3
ag3
ag3
aa(lp275
g3
ag8
ag3
ag3
aa(lp276
g3
ag3
ag3
ag3
aa(lp277
g3
ag45
ag3
ag3
aa(lp278
g3
ag3
ag3
ag3
aa(lp279
g3
ag3
ag160
ag3
aa(lp280
g3
ag3
ag3
ag3
aa(lp281
g3
ag45
ag3
ag3
aa(lp282
g3
ag3
ag3
ag3
aa(lp283
g3
ag160
ag3
ag3
aa(lp284
g3
ag3
ag3
ag3
aaa(lp285
(lp286
g3
ag3
ag3
ag3
aa(lp287
g3
ag3
ag184
ag3
aa(lp288
g3
ag3
ag3
ag3
aa(lp289
g3
ag3
ag184
ag3
aa(lp290
g3
ag3
ag3
ag3
aa(lp291
g3
ag3
ag8
ag3
aa(lp292
g3
ag3
ag3
ag3
aa(lp293
g3
ag5
ag3
ag3
aa(lp294
g3
ag3
ag3
ag3
aa(lp295
g3
ag3
ag8
ag3
aa(lp296
g3
ag3
ag3
ag3
aa(lp297
g3
ag3
ag184
ag3
aa(lp298
g3
ag3
ag3
ag3
aa(lp299
S'-'
p300
ag300
ag300
aS'4'
p301
aa(lp302
g3
ag3
ag3
ag3
aa(lp303
g300
ag300
ag300
aS'2'
p304
aa(lp305
g3
ag3
ag3
ag3
aa(lp306
g3
ag45
ag3
ag3
aa(lp307
g3
ag3
ag3
ag3
aa(lp308
g3
ag8
ag3
ag3
aa(lp309
g3
ag3
ag3
ag3
aa(lp310
g3
ag5
ag3
ag3
aa(lp311
g3
ag3
ag3
ag3
aa(lp312
g221
ag3
ag3
ag3
aa(lp313
g3
ag3
ag3
ag3
aa(lp314
g160
ag3
ag3
ag3
aa(lp315
g3
ag3
ag3
ag3
aa(lp316
g8
ag3
ag3
ag3
aa(lp317
g3
ag3
ag3
ag3
aa(lp318
g5
ag3
ag3
ag3
aa(lp319
g3
ag3
ag3
ag3
aa(lp320
g3
ag45
ag3
ag3
aa(lp321
g3
ag3
ag3
ag3
aaa(lp322
(lp323
g3
ag3
ag3
ag3
aa(lp324
g3
ag8
ag3
ag3
aa(lp325
g3
ag3
ag3
ag3
aa(lp326
g3
ag5
ag3
ag3
aa(lp327
g3
ag3
ag3
ag3
aa(lp328
g3
ag3
ag8
ag3
aa(lp329
g3
ag3
ag3
ag3
aa(lp330
g221
ag3
ag3
ag3
aa(lp331
g3
ag3
ag3
ag3
aa(lp332
g3
ag221
ag3
ag3
aa(lp333
g3
ag3
ag3
ag3
aa(lp334
g221
ag3
ag3
ag3
aa(lp335
g3
ag3
ag3
ag3
aa(lp336
g3
ag8
ag3
ag3
aa(lp337
g3
ag3
ag3
ag3
aa(lp338
g5
ag3
ag3
ag3
aa(lp339
g3
ag3
ag3
ag3
aa(lp340
g3
ag3
ag8
ag3
aa(lp341
g3
ag3
ag3
ag3
aa(lp342
g3
ag5
ag3
ag3
aa(lp343
g3
ag3
ag3
ag3
aa(lp344
g3
ag8
ag3
ag3
aa(lp345
g3
ag3
ag3
ag3
aa(lp346
g5
ag3
ag3
ag3
aa(lp347
g3
ag3
ag3
ag3
aa(lp348
g3
ag45
ag3
ag3
aa(lp349
g3
ag3
ag3
ag3
aa(lp350
g3
ag8
ag3
ag3
aa(lp351
g3
ag3
ag3
ag3
aa(lp352
g3
ag5
ag3
ag3
aa(lp353
g3
ag3
ag3
ag3
aa(lp354
g3
ag3
ag8
ag3
aa(lp355
g3
ag3
ag3
ag3
aaa(lp356
(lp357
g3
ag3
ag3
ag3
aa(lp358
g3
ag160
ag3
ag3
aa(lp359
g3
ag3
ag3
ag3
aa(lp360
g3
ag3
ag8
ag3
aa(lp361
g3
ag3
ag3
ag3
aa(lp362
g3
ag184
ag3
ag3
aa(lp363
g3
ag3
ag3
ag3
aa(lp364
g3
ag5
ag3
ag3
aa(lp365
g3
ag3
ag3
ag3
aa(lp366
g3
ag184
ag3
ag3
aa(lp367
g3
ag3
ag3
ag3
aa(lp368
g3
ag3
ag8
ag3
aa(lp369
g3
ag3
ag3
ag3
aa(lp370
g3
ag160
ag3
ag3
aa(lp371
g3
ag3
ag3
ag3
aa(lp372
g3
ag3
ag8
ag3
aa(lp373
g3
ag3
ag3
ag3
aa(lp374
g8
ag3
ag3
ag3
aa(lp375
g3
ag3
ag3
ag3
aa(lp376
g3
ag3
ag8
ag3
aa(lp377
g3
ag3
ag3
ag3
aa(lp378
g3
ag184
ag3
ag3
aa(lp379
g3
ag3
ag3
ag3
aa(lp380
g3
ag5
ag3
ag3
aa(lp381
g3
ag3
ag3
ag3
aa(lp382
g3
ag184
ag3
ag3
aa(lp383
g3
ag3
ag3
ag3
aa(lp384
g3
ag3
ag8
ag3
aa(lp385
g3
ag3
ag3
ag3
aa(lp386
g3
ag160
ag3
ag3
aa(lp387
g3
ag3
ag3
ag3
aa(lp388
g3
ag3
ag8
ag3
aa(lp389
g3
ag3
ag3
ag3
aaa(lp390
(lp391
g3
ag3
ag3
ag3
aa(lp392
g3
ag3
ag5
ag3
aa(lp393
g3
ag3
ag3
ag3
aa(lp394
g3
ag5
ag3
ag3
aa(lp395
g3
ag3
ag3
ag3
aa(lp396
g5
ag3
ag3
ag3
aa(lp397
g3
ag3
ag3
ag3
aa(lp398
g8
ag3
ag3
ag3
aa(lp399
g3
ag3
ag3
ag3
aa(lp400
g45
ag3
ag3
ag3
aa(lp401
g3
ag3
ag3
ag3
aa(lp402
g5
ag3
ag3
ag3
aa(lp403
g3
ag3
ag3
ag3
aa(lp404
g3
ag5
ag3
ag3
aa(lp405
g3
ag3
ag3
ag3
aa(lp406
g3
ag3
ag8
ag3
aa(lp407
g3
ag3
ag3
ag3
aa(lp408
g3
ag3
ag5
ag3
aa(lp409
g3
ag3
ag3
ag3
aa(lp410
g3
ag5
ag3
ag3
aa(lp411
g3
ag3
ag3
ag3
aa(lp412
g5
ag3
ag3
ag3
aa(lp413
g3
ag3
ag3
ag3
aa(lp414
g8
ag3
ag3
ag3
aa(lp415
g3
ag3
ag3
ag3
aa(lp416
g45
ag3
ag3
ag3
aa(lp417
g3
ag3
ag3
ag3
aa(lp418
g5
ag3
ag3
ag3
aa(lp419
g3
ag3
ag3
ag3
aa(lp420
g3
ag5
ag3
ag3
aa(lp421
g3
ag3
ag3
ag3
aa(lp422
g3
ag3
ag8
ag3
aa(lp423
g3
ag3
ag3
ag3
aaa(lp424
(lp425
g3
ag3
ag3
ag3
aa(lp426
g3
ag3
ag45
ag3
aa(lp427
g3
ag3
ag3
ag3
aa(lp428
g3
ag8
ag3
ag3
aa(lp429
g3
ag3
ag3
ag3
aa(lp430
g3
ag3
ag45
ag3
aa(lp431
g3
ag3
ag3
ag3
aa(lp432
g3
ag8
ag3
ag3
aa(lp433
g3
ag3
ag3
ag3
aa(lp434
g5
ag3
ag3
ag3
aa(lp435
g3
ag3
ag3
ag3
aa(lp436
g3
ag8
ag3
ag3
aa(lp437
g3
ag3
ag3
ag3
aa(lp438
g5
ag3
ag3
ag3
aa(lp439
g3
ag3
ag3
ag3
aa(lp440
g3
ag8
ag3
ag3
aa(lp441
g3
ag3
ag3
ag3
aa(lp442
g3
ag3
ag45
ag3
aa(lp443
g3
ag3
ag3
ag3
aa(lp444
g3
ag8
ag3
ag3
aa(lp445
g3
ag3
ag3
ag3
aa(lp446
g3
ag3
ag45
ag3
aa(lp447
g3
ag3
ag3
ag3
aa(lp448
g3
ag8
ag3
ag3
aa(lp449
g3
ag3
ag3
ag3
aa(lp450
g5
ag3
ag3
ag3
aa(lp451
g3
ag3
ag3
ag3
aa(lp452
g3
ag8
ag3
ag3
aa(lp453
g3
ag3
ag3
ag3
aa(lp454
g5
ag3
ag3
ag3
aa(lp455
g3
ag3
ag3
ag3
aa(lp456
g3
ag8
ag3
ag3
aa(lp457
g3
ag3
ag3
ag3
aaa(lp458
(lp459
g3
ag3
ag3
ag3
aa(lp460
S'-'
p461
aS'3'
p462
ag461
ag461
aa(lp463
g461
ag461
ag461
ag461
aa(lp464
g461
aS'2'
p465
ag461
ag461
aa(lp466
g461
ag461
ag461
ag461
aa(lp467
g461
aS'0'
p468
ag461
ag461
aa(lp469
g461
ag461
ag461
ag461
aa(lp470
g461
ag462
ag461
ag461
aa(lp471
g461
ag461
ag461
ag461
aa(lp472
g461
ag465
ag461
ag461
aa(lp473
g461
ag461
ag461
ag461
aa(lp474
g461
ag462
ag461
ag461
aa(lp475
g461
ag461
ag461
ag461
aa(lp476
g468
ag461
ag461
ag461
aa(lp477
g461
ag461
ag461
ag461
aa(lp478
g461
ag465
ag461
ag461
aa(lp479
g461
ag461
ag461
ag461
aa(lp480
g461
ag462
ag461
ag461
aa(lp481
g461
ag461
ag461
ag461
aa(lp482
g461
ag465
ag461
ag461
aa(lp483
g461
ag461
ag461
ag461
aa(lp484
g461
ag468
ag461
ag461
aa(lp485
g461
ag461
ag461
ag461
aa(lp486
g461
ag461
ag465
ag461
aa(lp487
g461
ag461
ag461
ag461
aa(lp488
g462
ag461
ag461
ag461
aa(lp489
g461
ag461
ag461
ag461
aa(lp490
g465
ag461
ag461
ag461
aa(lp491
g461
ag461
ag461
ag461
aa(lp492
g468
ag461
ag461
ag461
aa(lp493
g461
ag461
ag461
ag461
aa(lp494
S'-'
p495
ag495
aS'7'
p496
ag495
aa(lp497
g461
ag461
ag461
ag461
aaa(lp498
(lp499
g461
ag461
ag461
ag461
aa(lp500
g495
ag495
aS'6'
p501
ag495
aa(lp502
g461
ag461
ag461
ag461
aa(lp503
g495
aS'8'
p504
ag495
ag495
aa(lp505
g461
ag461
ag461
ag461
aa(lp506
S'5'
p507
ag461
ag461
ag461
aa(lp508
g461
ag461
ag461
ag461
aa(lp509
g495
ag504
ag495
ag495
aa(lp510
g461
ag461
ag461
ag461
aa(lp511
g507
ag461
ag461
ag461
aa(lp512
g461
ag461
ag461
ag461
aa(lp513
g495
ag504
ag495
ag495
aa(lp514
g461
ag461
ag461
ag461
aa(lp515
g507
ag461
ag461
ag461
aa(lp516
g461
ag461
ag461
ag461
aa(lp517
g495
ag504
ag495
ag495
aa(lp518
g461
ag461
ag461
ag461
aa(lp519
g495
ag495
ag501
ag495
aa(lp520
g461
ag461
ag461
ag461
aa(lp521
g495
ag504
ag495
ag495
aa(lp522
g461
ag461
ag461
ag461
aa(lp523
g507
ag461
ag461
ag461
aa(lp524
g461
ag461
ag461
ag461
aa(lp525
g495
ag504
ag495
ag495
aa(lp526
g461
ag461
ag461
ag461
aa(lp527
g507
ag461
ag461
ag461
aa(lp528
g461
ag461
ag461
ag461
aa(lp529
g495
ag504
ag495
ag495
aa(lp530
g461
ag461
ag461
ag461
aa(lp531
g507
ag461
ag461
ag461
aa(lp532
g461
ag461
ag461
ag461
aa(lp533
g495
ag504
ag495
ag495
aa(lp534
g461
ag461
ag461
ag461
aaa(lp535
(lp536
g461
ag461
ag461
ag461
aa(lp537
g461
ag461
ag461
ag468
aa(lp538
g461
ag461
ag461
ag461
aa(lp539
g461
aS'7'
p540
ag461
ag461
aa(lp541
g461
ag461
ag461
ag461
aa(lp542
S'8'
p543
ag461
ag461
ag461
aa(lp544
g461
ag461
ag461
ag461
aa(lp545
g540
ag461
ag461
ag461
aa(lp546
g461
ag461
ag461
ag461
aa(lp547
g543
ag461
ag461
ag461
aa(lp548
g461
ag461
ag461
ag461
aa(lp549
g461
ag540
ag461
ag461
aa(lp550
g461
ag461
ag461
ag461
aa(lp551
g543
ag461
ag461
ag461
aa(lp552
g461
ag461
ag461
ag461
aa(lp553
g461
ag540
ag461
ag461
aa(lp554
g461
ag461
ag461
ag461
aa(lp555
g461
ag461
ag461
ag468
aa(lp556
g461
ag461
ag461
ag461
aa(lp557
g461
ag540
ag461
ag461
aa(lp558
g461
ag461
ag461
ag461
aa(lp559
g543
ag461
ag461
ag461
aa(lp560
g461
ag461
ag461
ag461
aa(lp561
g540
ag461
ag461
ag461
aa(lp562
g461
ag461
ag461
ag461
aa(lp563
g543
ag461
ag461
ag461
aa(lp564
g461
ag461
ag461
ag461
aa(lp565
g461
ag540
ag461
ag461
aa(lp566
g461
ag461
ag461
ag461
aa(lp567
g543
ag461
ag461
ag461
aa(lp568
g461
ag461
ag461
ag461
aa(lp569
g461
ag540
ag461
ag461
aa(lp570
g461
ag461
ag461
ag461
aaa(lp571
(lp572
g461
ag461
ag461
ag461
aa(lp573
g461
ag461
ag461
ag468
aa(lp574
g461
ag461
ag461
ag461
aa(lp575
g461
ag543
ag461
ag461
aa(lp576
g461
ag461
ag461
ag461
aa(lp577
g540
ag461
ag461
ag461
aa(lp578
g461
ag461
ag461
ag461
aa(lp579
S'--'
p580
aS'10'
p581
aS'--'
p582
aS'--'
p583
aa(lp584
g461
ag461
ag461
ag461
aa(lp585
g540
ag461
ag461
ag461
aa(lp586
g461
ag461
ag461
ag461
aa(lp587
g461
ag543
ag461
ag461
aa(lp588
g461
ag461
ag461
ag461
aa(lp589
g540
ag461
ag461
ag461
aa(lp590
g461
ag461
ag461
ag461
aa(lp591
g461
ag543
ag461
ag461
aa(lp592
g461
ag461
ag461
ag461
aa(lp593
g461
ag461
ag461
ag468
aa(lp594
g461
ag461
ag461
ag461
aa(lp595
g461
ag543
ag461
ag461
aa(lp596
g461
ag461
ag461
ag461
aa(lp597
g540
ag461
ag461
ag461
aa(lp598
g461
ag461
ag461
ag461
aa(lp599
S'--'
p600
aS'10'
p601
aS'--'
p602
aS'--'
p603
aa(lp604
g461
ag461
ag461
ag461
aa(lp605
g540
ag461
ag461
ag461
aa(lp606
g461
ag461
ag461
ag461
aa(lp607
g461
ag543
ag461
ag461
aa(lp608
g461
ag461
ag461
ag461
aa(lp609
g540
ag461
ag461
ag461
aa(lp610
g461
ag461
ag461
ag461
aa(lp611
g461
ag543
ag461
ag461
aa(lp612
g461
ag461
ag461
ag461
aaa(lp613
(lp614
g461
ag461
ag461
ag461
aa(lp615
g461
ag461
ag461
ag468
aa(lp616
g461
ag461
ag461
ag461
aa(lp617
S'--'
p618
aS'14'
p619
aS'--'
p620
aS'--'
p621
aa(lp622
g461
ag461
ag461
ag461
aa(lp623
S'15'
p624
aS'--'
p625
aS'--'
p626
aS'--'
p627
aa(lp628
g461
ag461
ag461
ag461
aa(lp629
S'14'
p630
aS'--'
p631
aS'--'
p632
aS'--'
p633
aa(lp634
g461
ag461
ag461
ag461
aa(lp635
S'15'
p636
aS'--'
p637
aS'--'
p638
aS'--'
p639
aa(lp640
g461
ag461
ag461
ag461
aa(lp641
S'--'
p642
aS'14'
p643
aS'--'
p644
aS'--'
p645
aa(lp646
g461
ag461
ag461
ag461
aa(lp647
S'15'
p648
aS'--'
p649
aS'--'
p650
aS'--'
p651
aa(lp652
g461
ag461
ag461
ag461
aa(lp653
S'--'
p654
aS'14'
p655
aS'--'
p656
aS'--'
p657
aa(lp658
g461
ag461
ag461
ag461
aa(lp659
g461
ag461
ag461
ag468
aa(lp660
g461
ag461
ag461
ag461
aa(lp661
S'--'
p662
aS'14'
p663
aS'--'
p664
aS'--'
p665
aa(lp666
g461
ag461
ag461
ag461
aa(lp667
S'15'
p668
aS'--'
p669
aS'--'
p670
aS'--'
p671
aa(lp672
g461
ag461
ag461
ag461
aa(lp673
S'14'
p674
aS'--'
p675
aS'--'
p676
aS'--'
p677
aa(lp678
g461
ag461
ag461
ag461
aa(lp679
S'15'
p680
aS'--'
p681
aS'--'
p682
aS'--'
p683
aa(lp684
g461
ag461
ag461
ag461
aa(lp685
S'--'
p686
aS'14'
p687
aS'--'
p688
aS'--'
p689
aa(lp690
g461
ag461
ag461
ag461
aa(lp691
S'15'
p692
aS'--'
p693
aS'--'
p694
aS'--'
p695
aa(lp696
g461
ag461
ag461
ag461
aa(lp697
S'--'
p698
aS'14'
p699
aS'--'
p700
aS'--'
p701
aa(lp702
g461
ag461
ag461
ag461
aaa(lp703
(lp704
g461
ag461
ag461
ag461
aa(lp705
g461
ag461
ag461
ag468
aa(lp706
g461
ag461
ag461
ag461
aa(lp707
S'--'
p708
aS'10'
p709
aS'--'
p710
aS'--'
p711
aa(lp712
g461
ag461
ag461
ag461
aa(lp713
S'14'
p714
aS'--'
p715
aS'--'
p716
aS'--'
p717
aa(lp718
g461
ag461
ag461
ag461
aa(lp719
S'12'
p720
aS'--'
p721
aS'--'
p722
aS'--'
p723
aa(lp724
g461
ag461
ag461
ag461
aa(lp725
S'14'
p726
aS'--'
p727
aS'--'
p728
aS'--'
p729
aa(lp730
g461
ag461
ag461
ag461
aa(lp731
S'10'
p732
aS'--'
p733
aS'--'
p734
aS'--'
p735
aa(lp736
g461
ag461
ag461
ag461
aa(lp737
S'9'
p738
ag461
ag461
ag461
aa(lp739
g461
ag461
ag461
ag461
aa(lp740
g540
ag461
ag461
ag461
aa(lp741
g461
ag461
ag461
ag461
aa(lp742
S'--'
p743
aS'10'
p744
aS'--'
p745
aS'--'
p746
aa(lp747
g461
ag461
ag461
ag461
aa(lp748
g461
ag543
ag461
ag461
aa(lp749
g461
ag461
ag461
ag461
aa(lp750
g461
ag540
ag461
ag461
aa(lp751
g461
ag461
ag461
ag461
aa(lp752
g468
ag461
ag461
ag461
aa(lp753
g461
ag461
ag461
ag461
aa(lp754
g461
ag462
ag461
ag461
aa(lp755
g461
ag461
ag461
ag461
aa(lp756
g461
ag465
ag461
ag461
aa(lp757
g461
ag461
ag461
ag461
aa(lp758
g461
ag468
ag461
ag461
aa(lp759
g461
ag461
ag461
ag461
aa(lp760
g461
ag461
ag465
ag461
aa(lp761
g461
ag461
ag461
ag461
aaa(lp762
(lp763
g461
ag461
ag461
ag461
aa(lp764
g461
ag461
aS'1'
p765
ag461
aa(lp766
g461
ag461
ag461
ag461
aa(lp767
g468
ag461
ag461
ag461
aa(lp768
g461
ag461
ag461
ag461
aa(lp769
g461
ag468
ag461
ag461
aa(lp770
g461
ag461
ag461
ag461
aa(lp771
g461
ag465
ag461
ag461
aa(lp772
g461
ag461
ag461
ag461
aa(lp773
g461
ag462
ag461
ag461
aa(lp774
g461
ag461
ag461
ag461
aa(lp775
g461
ag468
ag461
ag461
aa(lp776
g461
ag461
ag461
ag461
aa(lp777
g461
ag465
ag461
ag461
aa(lp778
g461
ag461
ag461
ag461
aa(lp779
g461
ag462
ag461
ag461
aa(lp780
g461
ag461
ag461
ag461
aa(lp781
g461
ag461
ag765
ag461
aa(lp782
g461
ag461
ag461
ag461
aa(lp783
g468
ag461
ag461
ag461
aa(lp784
g461
ag461
ag461
ag461
aa(lp785
g461
ag468
ag461
ag461
aa(lp786
g461
ag461
ag461
ag461
aa(lp787
g461
ag465
ag461
ag461
aa(lp788
g461
ag461
ag461
ag461
aa(lp789
g461
ag462
ag461
ag461
aa(lp790
g461
ag461
ag461
ag461
aa(lp791
g461
ag468
ag461
ag461
aa(lp792
g461
ag461
ag461
ag461
aa(lp793
g461
ag465
ag461
ag461
aa(lp794
g461
ag461
ag461
ag461
aa(lp795
g461
ag462
ag461
ag461
aa(lp796
g461
ag461
ag461
ag461
aaa(lp797
(lp798
g461
ag461
ag461
ag461
aa(lp799
g461
ag461
ag468
ag461
aa(lp800
g461
ag461
ag461
ag461
aa(lp801
g468
ag461
ag461
ag461
aa(lp802
g461
ag461
ag461
ag461
aa(lp803
g461
ag461
ag465
ag461
aa(lp804
g461
ag461
ag461
ag461
aa(lp805
g461
ag468
ag461
ag461
aa(lp806
g461
ag461
ag461
ag461
aa(lp807
g461
ag465
ag461
ag461
aa(lp808
g461
ag461
ag461
ag461
aa(lp809
g461
ag461
ag465
ag461
aa(lp810
g461
ag461
ag461
ag461
aa(lp811
g461
ag468
ag461
ag461
aa(lp812
g461
ag461
ag461
ag461
aa(lp813
g461
ag465
ag461
ag461
aa(lp814
g461
ag461
ag461
ag461
aa(lp815
g461
ag461
ag468
ag461
aa(lp816
g461
ag461
ag461
ag461
aa(lp817
g468
ag461
ag461
ag461
aa(lp818
g461
ag461
ag461
ag461
aa(lp819
g461
ag461
ag465
ag461
aa(lp820
g461
ag461
ag461
ag461
aa(lp821
g461
ag468
ag461
ag461
aa(lp822
g461
ag461
ag461
ag461
aa(lp823
g461
ag465
ag461
ag461
aa(lp824
g461
ag461
ag461
ag461
aa(lp825
g461
ag461
ag465
ag461
aa(lp826
g461
ag461
ag461
ag461
aa(lp827
g461
ag468
ag461
ag461
aa(lp828
g461
ag461
ag461
ag461
aa(lp829
g461
ag465
ag461
ag461
aa(lp830
g461
ag461
ag461
ag461
aaa(lp831
(lp832
g461
ag461
ag461
ag461
aa(lp833
g461
ag461
ag468
ag461
aa(lp834
g461
ag461
ag461
ag461
aa(lp835
g468
ag461
ag461
ag461
aa(lp836
g461
ag461
ag461
ag461
aa(lp837
g461
ag461
ag465
ag461
aa(lp838
g461
ag461
ag461
ag461
aa(lp839
g461
ag465
ag461
ag461
aa(lp840
g461
ag461
ag461
ag461
aa(lp841
g468
ag461
ag461
ag461
aa(lp842
g461
ag461
ag461
ag461
aa(lp843
S'4'
p844
ag461
ag461
ag461
aa(lp845
g461
ag461
ag461
ag461
aa(lp846
g507
ag461
ag461
ag461
aa(lp847
g461
ag461
ag461
ag461
aa(lp848
g461
ag461
ag461
ag461
aa(lp849
g461
ag461
ag461
ag461
aa(lp850
g461
ag461
ag461
ag461
aa(lp851
g461
ag461
ag461
ag461
aa(lp852
g495
ag495
ag495
aS'2'
p853
aa(lp854
g461
ag461
ag461
ag461
aa(lp855
g495
ag495
ag495
aS'4'
p856
aa(lp857
g461
ag461
ag461
ag461
aa(lp858
g461
ag461
ag468
ag461
aa(lp859
g461
ag461
ag461
ag461
aa(lp860
g461
ag461
ag465
ag461
aa(lp861
g461
ag461
ag461
ag461
aa(lp862
g461
ag468
ag461
ag461
aa(lp863
g461
ag461
ag461
ag461
aa(lp864
g461
ag465
ag461
ag461
aa(lp865
g461
ag461
ag461
ag461
aa(lp866
g461
ag462
ag461
ag461
aa(lp867
g461
ag461
ag461
ag461
aaa(lp868
(lp869
g461
ag461
ag461
ag461
aa(lp870
g468
ag461
ag461
ag461
aa(lp871
g461
ag461
ag461
ag461
aa(lp872
g461
ag465
ag461
ag461
aa(lp873
g461
ag461
ag461
ag461
aa(lp874
g461
ag461
ag465
ag461
aa(lp875
g461
ag461
ag461
ag461
aa(lp876
g461
ag468
ag461
ag461
aa(lp877
g461
ag461
ag461
ag461
aa(lp878
g461
ag465
ag461
ag461
aa(lp879
g461
ag461
ag461
ag461
aa(lp880
g461
ag462
ag461
ag461
aa(lp881
g461
ag461
ag461
ag461
aa(lp882
g468
ag461
ag461
ag461
aa(lp883
g461
ag461
ag461
ag461
aa(lp884
g465
ag461
ag461
ag461
aa(lp885
g461
ag461
ag461
ag461
aa(lp886
g462
ag461
ag461
ag461
aa(lp887
g461
ag461
ag461
ag461
aa(lp888
g468
ag461
ag461
ag461
aa(lp889
g461
ag461
ag461
ag461
aa(lp890
g461
ag465
ag461
ag461
aa(lp891
g461
ag461
ag461
ag461
aa(lp892
g461
ag462
ag461
ag461
aa(lp893
g461
ag461
ag461
ag461
aa(lp894
g468
ag461
ag461
ag461
aa(lp895
g461
ag461
ag461
ag461
aa(lp896
g465
ag461
ag461
ag461
aa(lp897
g461
ag461
ag461
ag461
aa(lp898
g462
ag461
ag461
ag461
aa(lp899
g461
ag461
ag461
ag461
aa(lp900
g507
ag461
ag461
ag461
aa(lp901
g461
ag461
ag461
ag461
aaa(lp902
(lp903
g461
ag461
ag461
ag461
aa(lp904
S'6'
p905
ag461
ag461
ag461
aa(lp906
g461
ag461
ag461
ag461
aa(lp907
S'5'
p908
ag495
ag495
ag495
aa(lp909
g461
ag461
ag461
ag461
aa(lp910
g844
ag461
ag461
ag461
aa(lp911
g461
ag461
ag461
ag461
aa(lp912
g507
ag461
ag461
ag461
aa(lp913
g461
ag461
ag461
ag461
aa(lp914
g507
ag461
ag461
ag461
aa(lp915
g461
ag461
ag461
ag461
aa(lp916
g462
ag461
ag461
ag461
aa(lp917
g461
ag461
ag461
ag461
aa(lp918
g465
ag461
ag461
ag461
aa(lp919
g461
ag461
ag461
ag461
aa(lp920
g462
ag461
ag461
ag461
aa(lp921
g461
ag461
ag461
ag461
aa(lp922
g462
ag461
ag461
ag461
aa(lp923
g461
ag461
ag461
ag461
aa(lp924
g468
ag461
ag461
ag461
aa(lp925
g461
ag461
ag461
ag461
aa(lp926
g461
ag465
ag461
ag461
aa(lp927
g461
ag461
ag461
ag461
aa(lp928
g461
ag468
ag461
ag461
aa(lp929
g461
ag461
ag461
ag461
aa(lp930
g461
ag461
ag465
ag461
aa(lp931
g461
ag461
ag461
ag461
aa(lp932
g495
ag495
ag495
ag853
aa(lp933
g461
ag461
ag461
ag461
aa(lp934
g495
ag495
ag495
ag856
aa(lp935
g461
ag461
ag461
ag461
aa(lp936
g495
ag495
aS'0'
p937
ag495
aa(lp938
g461
ag461
ag461
ag461
aaa(lp939
(lp940
g461
ag461
ag461
ag461
aa(lp941
g461
ag461
ag465
ag461
aa(lp942
g461
ag461
ag461
ag461
aa(lp943
g495
ag495
ag853
ag495
aa(lp944
g461
ag461
ag461
ag461
aa(lp945
g461
ag461
ag465
ag461
aa(lp946
g461
ag461
ag461
ag461
aa(lp947
g461
ag465
ag461
ag461
aa(lp948
g461
ag461
ag461
ag461
aa(lp949
g468
ag461
ag461
ag461
aa(lp950
g461
ag461
ag461
ag461
aa(lp951
g465
ag461
ag461
ag461
aa(lp952
g461
ag461
ag461
ag461
aa(lp953
g462
ag461
ag461
ag461
aa(lp954
g461
ag461
ag461
ag461
aa(lp955
g468
ag461
ag461
ag461
aa(lp956
g461
ag461
ag461
ag461
aa(lp957
g465
ag461
ag461
ag461
aa(lp958
g461
ag461
ag461
ag461
aa(lp959
g461
ag462
ag461
ag461
aa(lp960
g461
ag461
ag461
ag461
aa(lp961
g461
ag461
ag465
ag461
aa(lp962
g461
ag461
ag461
ag461
aa(lp963
g461
ag461
ag468
ag461
aa(lp964
g461
ag461
ag461
ag461
aa(lp965
g495
ag495
ag495
ag856
aa(lp966
g461
ag461
ag461
ag461
aa(lp967
g495
ag495
ag495
ag937
aa(lp968
g461
ag461
ag461
ag461
aa(lp969
g495
ag495
ag495
ag853
aa(lp970
g461
ag461
ag461
ag461
aa(lp971
g495
ag495
ag495
ag856
aa(lp972
g461
ag461
ag461
ag461
aaa(lp973
(lp974
g461
ag461
ag461
ag461
aa(lp975
g495
ag495
ag853
ag495
aa(lp976
g461
ag461
ag461
ag461
aa(lp977
g495
ag495
ag495
ag937
aa(lp978
g461
ag461
ag461
ag461
aa(lp979
g495
ag495
ag495
ag856
aa(lp980
g461
ag461
ag461
ag461
aa(lp981
g461
ag461
ag465
ag461
aa(lp982
g461
ag461
ag461
ag461
aa(lp983
g461
ag462
ag461
ag461
aa(lp984
g461
ag461
ag461
ag461
aa(lp985
g468
ag461
ag461
ag461
aa(lp986
g461
ag461
ag461
ag461
aa(lp987
g465
ag461
ag461
ag461
aa(lp988
g461
ag461
ag461
ag461
aa(lp989
g461
ag462
ag461
ag461
aa(lp990
g461
ag461
ag461
ag461
aa(lp991
g844
ag461
ag461
ag461
aa(lp992
g461
ag461
ag461
ag461
aa(lp993
g765
ag461
ag461
ag461
aa(lp994
g461
ag461
ag461
ag461
aa(lp995
g468
ag461
ag461
ag461
aa(lp996
g461
ag461
ag461
ag461
aa(lp997
g765
ag461
ag461
ag461
aa(lp998
g461
ag461
ag461
ag461
aa(lp999
g765
ag461
ag461
ag461
aa(lp1000
g461
ag461
ag461
ag461
aa(lp1001
g468
ag461
ag461
ag461
aa(lp1002
g461
ag461
ag461
ag461
aa(lp1003
g461
ag844
ag461
ag461
aa(lp1004
g461
ag461
ag461
ag461
aa(lp1005
g468
ag461
ag461
ag461
aa(lp1006
g461
ag461
ag461
ag461
aaa(lp1007
(lp1008
g461
ag461
ag461
ag461
aa(lp1009
g468
ag461
ag461
ag461
aa(lp1010
g461
ag461
ag461
ag461
aa(lp1011
g461
ag462
ag461
ag461
aa(lp1012
g461
ag461
ag461
ag461
aa(lp1013
g461
ag465
ag461
ag461
aa(lp1014
g461
ag461
ag461
ag461
aa(lp1015
g461
ag462
ag461
ag461
aa(lp1016
g461
ag461
ag461
ag461
aa(lp1017
g461
ag462
ag461
ag461
aa(lp1018
g461
ag461
ag461
ag461
aa(lp1019
g461
ag468
ag461
ag461
aa(lp1020
g461
ag461
ag461
ag461
aa(lp1021
g461
ag461
ag765
ag461
aa(lp1022
g461
ag461
ag461
ag461
aa(lp1023
g495
ag495
ag495
ag856
aa(lp1024
g461
ag461
ag461
ag461
aa(lp1025
g495
ag495
ag495
ag853
aa(lp1026
g461
ag461
ag461
ag461
aa(lp1027
g461
ag461
ag765
ag461
aa(lp1028
g461
ag461
ag461
ag461
aa(lp1029
g461
ag468
ag461
ag461
aa(lp1030
g461
ag461
ag461
ag461
aa(lp1031
g461
ag462
ag461
ag461
aa(lp1032
g461
ag461
ag461
ag461
aa(lp1033
g468
ag461
ag461
ag461
aa(lp1034
g461
ag461
ag461
ag461
aa(lp1035
g844
ag461
ag461
ag461
aa(lp1036
g461
ag461
ag461
ag461
aa(lp1037
g507
ag461
ag461
ag461
aa(lp1038
g461
ag461
ag461
ag461
aa(lp1039
g844
ag461
ag461
ag461
aa(lp1040
g461
ag461
ag461
ag461
aaa(lp1041
(lp1042
g461
ag461
ag461
ag461
aa(lp1043
g507
ag461
ag461
ag461
aa(lp1044
g461
ag461
ag461
ag461
aa(lp1045
g468
ag461
ag461
ag461
aa(lp1046
g461
ag461
ag461
ag461
aa(lp1047
g461
ag465
ag461
ag461
aa(lp1048
g461
ag461
ag461
ag461
aa(lp1049
g461
ag468
ag461
ag461
aa(lp1050
g461
ag461
ag461
ag461
aa(lp1051
g461
ag465
ag461
ag461
aa(lp1052
g461
ag461
ag461
ag461
aa(lp1053
g468
ag461
ag461
ag461
aa(lp1054
g461
ag461
ag461
ag461
aa(lp1055
g461
ag461
ag465
ag461
aa(lp1056
g461
ag461
ag461
ag461
aa(lp1057
g461
ag465
ag461
ag461
aa(lp1058
g461
ag461
ag461
ag461
aa(lp1059
g468
ag461
ag461
ag461
aa(lp1060
g461
ag461
ag461
ag461
aa(lp1061
g507
ag461
ag461
ag461
aa(lp1062
g461
ag461
ag461
ag461
aa(lp1063
g844
ag461
ag461
ag461
aa(lp1064
g461
ag461
ag461
ag461
aa(lp1065
g465
ag461
ag461
ag461
aa(lp1066
g461
ag461
ag461
ag461
aa(lp1067
g468
ag461
ag461
ag461
aa(lp1068
g461
ag461
ag461
ag461
aa(lp1069
g461
ag462
ag461
ag461
aa(lp1070
g461
ag461
ag461
ag461
aa(lp1071
g461
ag465
ag461
ag461
aa(lp1072
g461
ag461
ag461
ag461
aa(lp1073
g461
ag468
ag461
ag461
aa(lp1074
g461
ag461
ag461
ag461
aaa(lp1075
(lp1076
g461
ag461
ag461
ag461
aa(lp1077
g461
ag461
ag465
ag461
aa(lp1078
g461
ag461
ag461
ag461
aa(lp1079
g461
ag461
ag461
ag461
aa(lp1080
g461
ag461
ag461
ag461
aa(lp1081
g462
ag461
ag461
ag461
aa(lp1082
g461
ag461
ag461
ag461
aa(lp1083
g465
ag461
ag461
ag461
aa(lp1084
g461
ag461
ag461
ag461
aa(lp1085
g468
ag461
ag461
ag461
aa(lp1086
g461
ag461
ag461
ag461
aa(lp1087
g461
ag462
ag461
ag461
aa(lp1088
g461
ag461
ag461
ag461
aa(lp1089
g461
ag465
ag461
ag461
aa(lp1090
g461
ag461
ag461
ag461
aa(lp1091
g461
ag468
ag461
ag461
aa(lp1092
g461
ag461
ag461
ag461
aa(lp1093
g461
ag461
ag465
ag461
aa(lp1094
g461
ag461
ag461
ag461
aa(lp1095
g462
ag461
ag461
ag461
aa(lp1096
g461
ag461
ag461
ag461
aa(lp1097
g465
ag461
ag461
ag461
aa(lp1098
g461
ag461
ag461
ag461
aa(lp1099
g468
ag461
ag461
ag461
aa(lp1100
g461
ag461
ag461
ag461
aa(lp1101
g461
ag462
ag461
ag461
aa(lp1102
g461
ag461
ag461
ag461
aa(lp1103
g461
ag465
ag461
ag461
aa(lp1104
g461
ag461
ag461
ag461
aa(lp1105
g461
ag468
ag461
ag461
aa(lp1106
g461
ag461
ag461
ag461
aa(lp1107
g461
ag461
ag465
ag461
aa(lp1108
g461
ag461
ag461
ag461
aaa(lp1109
(lp1110
g461
ag461
ag461
ag461
aa(lp1111
g461
ag461
ag461
ag507
aa(lp1112
g461
ag461
ag461
ag461
aa(lp1113
g853
ag495
ag495
ag495
aa(lp1114
g461
ag461
ag461
ag461
aa(lp1115
g468
ag461
ag461
ag461
aa(lp1116
g461
ag461
ag461
ag461
aa(lp1117
g461
ag462
ag461
ag461
aa(lp1118
g461
ag461
ag461
ag461
aa(lp1119
g461
ag465
ag461
ag461
aa(lp1120
g461
ag461
ag461
ag461
aa(lp1121
g461
ag468
ag461
ag461
aa(lp1122
g461
ag461
ag461
ag461
aa(lp1123
g461
ag461
ag465
ag461
aa(lp1124
g461
ag461
ag461
ag461
aa(lp1125
g461
ag461
ag468
ag461
aa(lp1126
g461
ag461
ag461
ag461
aa(lp1127
g461
ag461
ag461
ag844
aa(lp1128
g461
ag461
ag461
ag461
aa(lp1129
g937
ag495
ag495
ag495
aa(lp1130
g461
ag461
ag461
ag461
aa(lp1131
g495
aS'3'
p1132
ag495
ag495
aa(lp1133
g461
ag461
ag461
ag461
aa(lp1134
g495
ag853
ag495
ag495
aa(lp1135
g461
ag461
ag461
ag461
aa(lp1136
g495
ag937
ag495
ag495
aa(lp1137
g461
ag461
ag461
ag461
aa(lp1138
g495
ag495
ag853
ag495
aa(lp1139
g461
ag461
ag461
ag461
aa(lp1140
g495
ag495
ag937
ag495
aa(lp1141
g461
ag461
ag461
ag461
aa(lp1142
g495
ag495
ag495
ag856
aa(lp1143
g461
ag461
ag461
ag461
aaa(lp1144
(lp1145
g461
ag461
ag461
ag461
aa(lp1146
g461
ag461
ag461
ag465
aa(lp1147
g461
ag461
ag461
ag461
aa(lp1148
g461
ag462
ag461
ag461
aa(lp1149
g461
ag461
ag461
ag461
aa(lp1150
g461
ag465
ag461
ag461
aa(lp1151
g461
ag461
ag461
ag461
aa(lp1152
g461
ag468
ag461
ag461
aa(lp1153
g461
ag461
ag461
ag461
aa(lp1154
g461
ag465
ag461
ag461
aa(lp1155
g461
ag461
ag461
ag461
aa(lp1156
g468
ag461
ag461
ag461
aa(lp1157
g461
ag461
ag461
ag461
aa(lp1158
g461
ag461
ag465
ag461
aa(lp1159
g461
ag461
ag461
ag461
aa(lp1160
g468
ag461
ag461
ag461
aa(lp1161
g461
ag461
ag461
ag461
aa(lp1162
g461
ag468
ag461
ag461
aa(lp1163
g461
ag461
ag461
ag461
aa(lp1164
g468
ag461
ag461
ag461
aa(lp1165
g461
ag461
ag461
ag461
aa(lp1166
g461
ag465
ag461
ag461
aa(lp1167
g461
ag461
ag461
ag461
aa(lp1168
g468
ag461
ag461
ag461
aa(lp1169
g461
ag461
ag461
ag461
aa(lp1170
g461
ag462
ag461
ag461
aa(lp1171
g461
ag461
ag461
ag461
aa(lp1172
g468
ag461
ag461
ag461
aa(lp1173
g461
ag461
ag461
ag461
aa(lp1174
g461
ag468
ag461
ag461
aa(lp1175
g461
ag461
ag461
ag461
aa(lp1176
g468
ag461
ag461
ag461
aa(lp1177
g461
ag461
ag461
ag461
aaa(lp1178
(lp1179
g461
ag461
ag461
ag461
aa(lp1180
g461
ag465
ag461
ag461
aa(lp1181
g461
ag461
ag461
ag461
aa(lp1182
g468
ag461
ag461
ag461
aa(lp1183
g461
ag461
ag461
ag461
aa(lp1184
g461
ag461
ag465
ag461
aa(lp1185
g461
ag461
ag461
ag461
aa(lp1186
g468
ag461
ag461
ag461
aa(lp1187
g461
ag461
ag461
ag461
aa(lp1188
g461
ag462
ag461
ag461
aa(lp1189
g461
ag461
ag461
ag461
aa(lp1190
g468
ag461
ag461
ag461
aa(lp1191
g461
ag461
ag461
ag461
aa(lp1192
g461
ag468
ag461
ag461
aa(lp1193
g461
ag461
ag461
ag461
aa(lp1194
g468
ag461
ag461
ag461
aa(lp1195
g461
ag461
ag461
ag461
aa(lp1196
g461
ag465
ag461
ag461
aa(lp1197
g461
ag461
ag461
ag461
aa(lp1198
g468
ag461
ag461
ag461
aa(lp1199
g461
ag461
ag461
ag461
aa(lp1200
g461
ag461
ag465
ag461
aa(lp1201
g461
ag461
ag461
ag461
aa(lp1202
g468
ag461
ag461
ag461
aa(lp1203
g461
ag461
ag461
ag461
aa(lp1204
g461
ag462
ag461
ag461
aa(lp1205
g461
ag461
ag461
ag461
aa(lp1206
g468
ag461
ag461
ag461
aa(lp1207
g461
ag461
ag461
ag461
aa(lp1208
g461
ag468
ag461
ag461
aa(lp1209
g461
ag461
ag461
ag461
aa(lp1210
g468
ag461
ag461
ag461
aa(lp1211
g461
ag461
ag461
ag461
aaa(lp1212
(lp1213
g461
ag461
ag461
ag461
aa(lp1214
g461
ag465
ag461
ag461
aa(lp1215
g461
ag461
ag461
ag461
aa(lp1216
g468
ag461
ag461
ag461
aa(lp1217
g461
ag461
ag461
ag461
aa(lp1218
g461
ag461
ag465
ag461
aa(lp1219
g461
ag461
ag461
ag461
aa(lp1220
g468
ag461
ag461
ag461
aa(lp1221
g461
ag461
ag461
ag461
aa(lp1222
g461
ag468
ag461
ag461
aa(lp1223
g461
ag461
ag461
ag461
aa(lp1224
g468
ag461
ag461
ag461
aa(lp1225
g461
ag461
ag461
ag461
aa(lp1226
g461
ag465
ag461
ag461
aa(lp1227
g461
ag461
ag461
ag461
aa(lp1228
g468
ag461
ag461
ag461
aa(lp1229
g461
ag461
ag461
ag461
aa(lp1230
g461
ag462
ag461
ag461
aa(lp1231
g461
ag461
ag461
ag461
aa(lp1232
g468
ag461
ag461
ag461
aa(lp1233
g461
ag461
ag461
ag461
aa(lp1234
g461
ag507
ag461
ag461
aa(lp1235
g461
ag461
ag461
ag461
aa(lp1236
g468
ag461
ag461
ag461
aa(lp1237
g461
ag461
ag461
ag461
aa(lp1238
g461
ag540
ag461
ag461
aa(lp1239
g461
ag461
ag461
ag461
aa(lp1240
g468
ag461
ag461
ag461
aa(lp1241
g461
ag461
ag461
ag461
aa(lp1242
g461
ag461
ag465
ag461
aa(lp1243
g461
ag461
ag461
ag461
aa(lp1244
g468
ag461
ag461
ag461
aa(lp1245
g461
ag461
ag461
ag461
aaa(lp1246
(lp1247
g461
ag461
ag461
ag461
aa(lp1248
g461
ag507
ag461
ag461
aa(lp1249
g461
ag461
ag461
ag461
aa(lp1250
g468
ag461
ag461
ag461
aa(lp1251
g461
ag461
ag461
ag461
aa(lp1252
g461
ag540
ag461
ag461
aa(lp1253
g461
ag461
ag461
ag461
aa(lp1254
g468
ag461
ag461
ag461
aa(lp1255
g461
ag461
ag461
ag461
aa(lp1256
g461
ag543
ag461
ag461
aa(lp1257
g461
ag461
ag461
ag461
aa(lp1258
g468
ag461
ag461
ag461
aa(lp1259
g461
ag461
ag461
ag461
aa(lp1260
g461
ag461
ag465
ag461
aa(lp1261
g461
ag461
ag461
ag461
aa(lp1262
g468
ag461
ag461
ag461
aa(lp1263
g461
ag461
ag461
ag461
aa(lp1264
g461
ag540
ag461
ag461
aa(lp1265
g461
ag461
ag461
ag461
aa(lp1266
g468
ag461
ag461
ag461
aa(lp1267
g461
ag461
ag461
ag461
aa(lp1268
g461
ag543
ag461
ag461
aa(lp1269
g461
ag461
ag461
ag461
aa(lp1270
g468
ag461
ag461
ag461
aa(lp1271
g461
ag461
ag461
ag461
aa(lp1272
S'--'
p1273
aS'10'
p1274
aS'--'
p1275
aS'--'
p1276
aa(lp1277
g461
ag461
ag461
ag461
aa(lp1278
g468
ag461
ag461
ag461
aa(lp1279
g461
ag461
ag461
ag461
aa(lp1280
g461
ag540
ag461
ag461
aa(lp1281
g461
ag461
ag461
ag461
aa(lp1282
g468
ag461
ag461
ag461
aa(lp1283
g461
ag461
ag461
ag461
aaa(lp1284
(lp1285
g461
ag461
ag461
ag461
aa(lp1286
g461
ag543
ag461
ag461
aa(lp1287
g461
ag461
ag461
ag461
aa(lp1288
g468
ag461
ag461
ag461
aa(lp1289
g461
ag461
ag461
ag461
aa(lp1290
g461
ag540
ag461
ag461
aa(lp1291
g461
ag461
ag461
ag461
aa(lp1292
g468
ag461
ag461
ag461
aa(lp1293
g461
ag461
ag461
ag461
aa(lp1294
g461
ag543
ag461
ag461
aa(lp1295
g461
ag461
ag461
ag461
aa(lp1296
g468
ag461
ag461
ag461
aa(lp1297
g461
ag461
ag461
ag461
aa(lp1298
g461
ag507
ag461
ag461
aa(lp1299
g461
ag461
ag461
ag461
aa(lp1300
g468
ag461
ag461
ag461
aa(lp1301
g461
ag461
ag461
ag461
aa(lp1302
g461
ag540
ag461
ag461
aa(lp1303
g461
ag461
ag461
ag461
aa(lp1304
g468
ag461
ag461
ag461
aa(lp1305
g461
ag461
ag461
ag461
aa(lp1306
g461
ag507
ag461
ag461
aa(lp1307
g461
ag461
ag461
ag461
aa(lp1308
g468
ag461
ag461
ag461
aa(lp1309
g461
ag461
ag461
ag461
aa(lp1310
g461
ag540
ag461
ag461
aa(lp1311
g461
ag461
ag461
ag461
aa(lp1312
g468
ag461
ag461
ag461
aa(lp1313
g461
ag461
ag461
ag461
aa(lp1314
g461
ag462
ag461
ag461
aa(lp1315
g461
ag461
ag461
ag461
aa(lp1316
g468
ag461
ag461
ag461
aa(lp1317
g461
ag461
ag461
ag461
aaa(lp1318
(lp1319
g461
ag461
ag461
ag461
aa(lp1320
g461
ag507
ag461
ag461
aa(lp1321
g461
ag461
ag461
ag461
aa(lp1322
g468
ag461
ag461
ag461
aa(lp1323
g461
ag461
ag461
ag461
aa(lp1324
g461
ag462
ag461
ag461
aa(lp1325
g461
ag461
ag461
ag461
aa(lp1326
g468
ag461
ag461
ag461
aa(lp1327
g461
ag461
ag461
ag461
aa(lp1328
g461
ag507
ag461
ag461
aa(lp1329
g461
ag461
ag461
ag461
aa(lp1330
g468
ag461
ag461
ag461
aa(lp1331
g461
ag461
ag461
ag461
aa(lp1332
g461
ag465
ag461
ag461
aa(lp1333
g461
ag461
ag461
ag461
aa(lp1334
g468
ag461
ag461
ag461
aa(lp1335
g461
ag461
ag461
ag461
aa(lp1336
g461
ag462
ag461
ag461
aa(lp1337
g461
ag461
ag461
ag461
aa(lp1338
g468
ag461
ag461
ag461
aa(lp1339
g461
ag461
ag461
ag461
aa(lp1340
g461
ag465
ag461
ag461
aa(lp1341
g461
ag461
ag461
ag461
aa(lp1342
g468
ag461
ag461
ag461
aa(lp1343
g461
ag461
ag461
ag461
aa(lp1344
g461
ag462
ag461
ag461
aa(lp1345
g461
ag461
ag461
ag461
aa(lp1346
g468
ag461
ag461
ag461
aa(lp1347
g461
ag461
ag461
ag461
aa(lp1348
g461
ag468
ag461
ag461
aa(lp1349
g461
ag461
ag461
ag461
aa(lp1350
g468
ag461
ag461
ag461
aa(lp1351
g461
ag461
ag461
ag461
aaa(lp1352
(lp1353
g461
ag461
ag461
ag461
aa(lp1354
g461
ag465
ag461
ag461
aa(lp1355
g461
ag461
ag461
ag461
aa(lp1356
g468
ag461
ag461
ag461
aa(lp1357
g461
ag461
ag461
ag461
aa(lp1358
g461
ag461
ag465
ag461
aa(lp1359
g461
ag461
ag461
ag461
aa(lp1360
g461
ag468
ag461
ag461
aa(lp1361
g461
ag461
ag461
ag461
aa(lp1362
g495
aS'1'
p1363
ag495
ag495
aa(lp1364
g461
ag461
ag461
ag461
aa(lp1365
g495
ag495
ag853
ag495
aa(lp1366
g461
ag461
ag461
ag461
aa(lp1367
g495
ag853
ag495
ag495
aa(lp1368
g495
ag495
ag495
ag495
aa(lp1369
g495
ag495
ag853
ag495
aa(lp1370
g461
ag461
ag461
ag461
aa(lp1371
g495
ag1132
ag495
ag495
aa(lp1372
g461
ag461
ag461
ag461
aa(lp1373
g495
ag495
ag853
ag495
aa(lp1374
g461
ag461
ag461
ag461
aa(lp1375
g495
ag856
ag495
ag495
aa(lp1376
g461
ag461
ag461
ag461
aa(lp1377
g495
ag495
ag853
ag495
aa(lp1378
g461
ag461
ag461
ag461
aa(lp1379
g937
ag495
ag495
ag495
aa(lp1380
g461
ag461
ag461
ag461
aa(lp1381
g495
ag495
ag853
ag495
aa(lp1382
g461
ag461
ag461
ag461
aa(lp1383
g1363
ag495
ag495
ag495
aa(lp1384
g461
ag461
ag461
ag461
aa(lp1385
g495
ag495
ag853
ag495
aa(lp1386
g495
ag495
ag495
ag495
aaa(lp1387
(lp1388
g461
ag461
ag461
ag461
aa(lp1389
g853
ag495
ag495
ag495
aa(lp1390
g461
ag461
ag461
ag461
aa(lp1391
g495
ag495
ag853
ag495
aa(lp1392
g461
ag461
ag461
ag461
aa(lp1393
g1132
ag495
ag495
ag495
aa(lp1394
g461
ag461
ag461
ag461
aa(lp1395
g495
ag495
ag853
ag495
aa(lp1396
g461
ag461
ag461
ag461
aa(lp1397
g856
ag495
ag495
ag495
aa(lp1398
g461
ag461
ag461
ag461
aa(lp1399
g495
ag495
ag853
ag495
aa(lp1400
g461
ag461
ag461
ag461
aa(lp1401
g908
ag495
ag495
ag495
aa(lp1402
g461
ag461
ag461
ag461
aa(lp1403
g495
ag495
ag853
ag495
aa(lp1404
g461
ag461
ag461
ag461
aa(lp1405
g501
ag495
ag495
ag495
aa(lp1406
g461
ag461
ag461
ag461
aa(lp1407
g495
ag495
ag853
ag495
aa(lp1408
g461
ag461
ag461
ag461
aa(lp1409
g540
ag461
ag461
ag461
aa(lp1410
g461
ag461
ag461
ag461
aa(lp1411
g461
ag461
ag461
ag540
aa(lp1412
g461
ag461
ag461
ag461
aa(lp1413
g543
ag461
ag461
ag461
aa(lp1414
g461
ag461
ag461
ag461
aa(lp1415
g461
ag461
ag461
ag540
aa(lp1416
g461
ag461
ag461
ag461
aa(lp1417
g738
ag461
ag461
ag461
aa(lp1418
g461
ag461
ag461
ag461
aa(lp1419
g461
ag461
ag461
ag540
aa(lp1420
g461
ag461
ag461
ag461
aaa(lp1421
(lp1422
g461
ag461
ag461
ag461
aa(lp1423
S'10'
p1424
aS'--'
p1425
aS'--'
p1426
aS'--'
p1427
aa(lp1428
g461
ag461
ag461
ag461
aa(lp1429
g461
ag540
ag461
ag461
aa(lp1430
g461
ag461
ag461
ag461
aa(lp1431
g461
ag461
ag461
ag540
aa(lp1432
g461
ag461
ag461
ag461
aa(lp1433
g461
ag540
ag461
ag461
aa(lp1434
g461
ag461
ag461
ag461
aa(lp1435
S'10'
p1436
aS'--'
p1437
aS'--'
p1438
aS'--'
p1439
aa(lp1440
g461
ag461
ag461
ag461
aa(lp1441
g461
ag540
ag461
ag461
aa(lp1442
g461
ag461
ag461
ag461
aa(lp1443
S'10'
p1444
aS'--'
p1445
aS'--'
p1446
aS'--'
p1447
aa(lp1448
g461
ag461
ag461
ag461
aa(lp1449
g461
ag540
ag461
ag461
aa(lp1450
g461
ag461
ag461
ag461
aa(lp1451
S'10'
p1452
aS'--'
p1453
aS'--'
p1454
aS'--'
p1455
aa(lp1456
g461
ag461
ag461
ag461
aa(lp1457
g461
ag540
ag461
ag461
aa(lp1458
g461
ag461
ag461
ag461
aa(lp1459
g461
ag461
ag461
ag540
aa(lp1460
g461
ag461
ag461
ag461
aa(lp1461
g461
ag540
ag461
ag461
aa(lp1462
g461
ag461
ag461
ag461
aa(lp1463
S'10'
p1464
aS'--'
p1465
aS'--'
p1466
aS'--'
p1467
aa(lp1468
g461
ag461
ag461
ag461
aa(lp1469
g461
ag540
ag461
ag461
aa(lp1470
g461
ag461
ag461
ag461
aa(lp1471
S'10'
p1472
aS'--'
p1473
aS'--'
p1474
aS'--'
p1475
aa(lp1476
g461
ag461
ag461
ag461
aa(lp1477
g461
ag540
ag461
ag461
aa(lp1478
g461
ag461
ag461
ag461
aaa(lp1479
(lp1480
g461
ag461
ag461
ag461
aa(lp1481
S'10'
p1482
aS'--'
p1483
aS'--'
p1484
aS'--'
p1485
aa(lp1486
g461
ag461
ag461
ag461
aa(lp1487
g461
ag461
ag738
ag461
aa(lp1488
g461
ag461
ag461
ag461
aa(lp1489
g461
ag461
ag461
ag540
aa(lp1490
g461
ag461
ag461
ag461
aa(lp1491
g461
ag461
ag738
ag461
aa(lp1492
g461
ag461
ag461
ag461
aa(lp1493
S'10'
p1494
aS'--'
p1495
aS'--'
p1496
aS'--'
p1497
aa(lp1498
g461
ag461
ag461
ag461
aa(lp1499
g461
ag461
ag738
ag461
aa(lp1500
g461
ag461
ag461
ag461
aa(lp1501
S'10'
p1502
aS'--'
p1503
aS'--'
p1504
aS'--'
p1505
aa(lp1506
g461
ag461
ag461
ag461
aa(lp1507
g461
ag461
ag738
ag461
aa(lp1508
g461
ag461
ag461
ag461
aa(lp1509
S'10'
p1510
aS'--'
p1511
aS'--'
p1512
aS'--'
p1513
aa(lp1514
g461
ag461
ag461
ag461
aa(lp1515
g461
ag461
ag738
ag461
aa(lp1516
g461
ag461
ag461
ag461
aa(lp1517
g461
ag461
ag461
ag540
aa(lp1518
g461
ag461
ag461
ag461
aa(lp1519
g461
ag461
ag738
ag461
aa(lp1520
g461
ag461
ag461
ag461
aa(lp1521
S'10'
p1522
aS'--'
p1523
aS'--'
p1524
aS'--'
p1525
aa(lp1526
g461
ag461
ag461
ag461
aa(lp1527
g461
ag461
ag738
ag461
aa(lp1528
g461
ag461
ag461
ag461
aa(lp1529
S'10'
p1530
aS'--'
p1531
aS'--'
p1532
aS'--'
p1533
aa(lp1534
g461
ag461
ag461
ag461
aa(lp1535
g461
ag461
ag738
ag461
aa(lp1536
g461
ag461
ag461
ag461
aaa(lp1537
(lp1538
g461
ag461
ag461
ag461
aa(lp1539
g738
ag461
ag461
ag461
aa(lp1540
g461
ag461
ag461
ag461
aa(lp1541
g461
ag543
ag461
ag461
aa(lp1542
g461
ag461
ag461
ag461
aa(lp1543
g461
ag461
ag461
ag540
aa(lp1544
g461
ag461
ag461
ag461
aa(lp1545
g461
ag543
ag461
ag461
aa(lp1546
g461
ag461
ag461
ag461
aa(lp1547
g738
ag461
ag461
ag461
aa(lp1548
g461
ag461
ag461
ag461
aa(lp1549
g461
ag543
ag461
ag461
aa(lp1550
g461
ag461
ag461
ag461
aa(lp1551
g738
ag461
ag461
ag461
aa(lp1552
g461
ag461
ag461
ag461
aa(lp1553
g461
ag543
ag461
ag461
aa(lp1554
g461
ag461
ag461
ag461
aa(lp1555
g738
ag461
ag461
ag461
aa(lp1556
g461
ag461
ag461
ag461
aa(lp1557
g461
ag543
ag461
ag461
aa(lp1558
g461
ag461
ag461
ag461
aa(lp1559
g461
ag461
ag461
ag540
aa(lp1560
g461
ag461
ag461
ag461
aa(lp1561
g461
ag543
ag461
ag461
aa(lp1562
g461
ag461
ag461
ag461
aa(lp1563
g738
ag461
ag461
ag461
aa(lp1564
g461
ag461
ag461
ag461
aa(lp1565
g461
ag543
ag461
ag461
aa(lp1566
g461
ag461
ag461
ag461
aa(lp1567
g738
ag461
ag461
ag461
aa(lp1568
g461
ag461
ag461
ag461
aa(lp1569
g461
ag543
ag461
ag461
aa(lp1570
g461
ag461
ag461
ag461
aaa(lp1571
(lp1572
g461
ag461
ag461
ag461
aa(lp1573
g495
ag495
ag495
ag937
aa(lp1574
g461
ag461
ag461
ag461
aa(lp1575
g461
ag461
ag461
ag461
aa(lp1576
g461
ag461
ag461
ag461
aa(lp1577
g461
ag461
ag461
ag461
aa(lp1578
g461
ag461
ag461
ag461
aa(lp1579
S'10'
p1580
aS'7-'
p1581
aS'7-'
p1582
aS'--'
p1583
aa(lp1584
g461
ag461
ag461
ag461
aa(lp1585
g461
ag461
ag461
ag461
aa(lp1586
g461
ag461
ag461
ag461
aa(lp1587
g461
ag461
ag461
ag461
aa(lp1588
g461
ag461
ag461
ag461
aaa.