(lp0
(lp1
(lp2
S'3'
p3
aS'0'
p4
ag4
ag4
aa(lp5
S'-'
p6
ag6
ag6
ag6
aag2
a(lp7
g6
ag6
ag6
ag6
aa(lp8
g3
ag6
ag6
ag4
aa(lp9
g6
ag6
ag6
ag6
aa(lp10
g3
ag6
ag6
ag4
aa(lp11
g6
ag6
ag6
ag6
aa(lp12
g6
ag6
ag6
ag6
aa(lp13
g3
ag6
ag6
ag4
aa(lp14
g6
ag6
ag6
ag6
aaa(lp15
(lp16
g6
ag6
ag6
ag6
aa(lp17
g3
ag6
ag6
ag4
aa(lp18
g6
ag6
ag6
ag6
aa(lp19
S'5'
p20
ag6
ag6
ag4
aa(lp21
g6
ag6
ag6
ag6
aa(lp22
g3
ag6
ag6
ag4
aa(lp23
g6
ag6
ag6
ag6
aa(lp24
g6
ag6
ag6
ag6
aag2
a(lp25
g6
ag6
ag6
ag6
aaa(lp26
(lp27
g6
ag6
ag6
ag6
aa(lp28
S'2'
p29
aS'1'
p30
ag29
ag4
aa(lp31
g6
ag6
ag6
ag6
aa(lp32
g29
ag6
ag6
ag4
aa(lp33
g6
ag6
ag6
ag6
aa(lp34
g29
ag6
ag6
ag4
aa(lp35
g6
ag6
ag6
ag6
aa(lp36
S'-'
p37
aS'3'
p38
ag37
aS'0'
p39
aa(lp40
g6
ag6
ag6
ag6
aaa(lp41
(lp42
g6
ag6
ag6
ag6
aag28
a(lp43
g6
ag6
ag6
ag6
aa(lp44
g3
ag6
ag6
ag4
aa(lp45
g6
ag6
ag6
ag6
aa(lp46
g29
ag6
ag6
ag4
aa(lp47
g6
ag6
ag6
ag6
aag28
a(lp48
g6
ag6
ag6
ag6
aaa(lp49
(lp50
g6
ag6
ag6
ag6
aa(lp51
g4
ag30
ag4
ag29
aa(lp52
g6
ag6
ag6
ag6
aa(lp53
g4
ag30
ag4
ag29
aa(lp54
g6
ag6
ag6
ag6
aa(lp55
g4
ag6
ag6
ag29
aa(lp56
g6
ag6
ag6
ag6
aa(lp57
g39
ag37
ag37
aS'2'
p58
aa(lp59
g6
ag6
ag6
ag6
aaa(lp60
(lp61
g6
ag6
ag6
ag6
aag51
a(lp62
g6
ag6
ag6
ag6
aa(lp63
g29
ag6
ag6
ag29
aa(lp64
g6
ag6
ag6
ag6
aa(lp65
g4
ag6
ag6
ag29
aa(lp66
g6
ag6
ag6
ag6
aa(lp67
g6
ag3
ag6
ag6
aa(lp68
g6
ag6
ag6
ag6
aaa(lp69
(lp70
g6
ag6
ag6
ag6
aag2
a(lp71
g6
ag6
ag6
ag6
aa(lp72
g6
ag6
ag6
ag6
aa(lp73
g3
ag6
ag6
ag4
aa(lp74
g6
ag6
ag6
ag6
aa(lp75
g6
ag3
ag6
ag4
aa(lp76
g6
ag6
ag6
ag6
aaa(lp77
(lp78
g6
ag6
ag6
ag6
aag28
a(lp79
g6
ag6
ag6
ag6
aa(lp80
g6
ag6
ag6
ag6
aa(lp81
g6
ag6
ag6
ag6
aa(lp82
g6
ag6
ag6
ag6
aaa(lp83
(lp84
g6
ag6
ag6
ag6
aag2
a(lp85
g6
ag6
ag6
ag6
aa(lp86
g3
ag6
ag6
ag4
aa(lp87
g6
ag6
ag6
ag6
aa(lp88
g3
ag6
ag6
ag4
aa(lp89
g6
ag6
ag6
ag6
aa(lp90
g6
ag6
ag6
ag6
aa(lp91
g3
ag6
ag6
ag4
aa(lp92
g6
ag6
ag6
ag6
aaa(lp93
(lp94
g6
ag6
ag6
ag6
aa(lp95
g3
ag6
ag6
ag4
aa(lp96
g6
ag6
ag6
ag6
aa(lp97
g20
ag6
ag6
ag4
aa(lp98
g6
ag6
ag6
ag6
aa(lp99
g3
ag6
ag6
ag4
aa(lp100
g6
ag6
ag6
ag6
aa(lp101
g6
ag6
ag6
ag6
aa(lp102
g3
ag4
ag4
ag4
aa(lp103
g6
ag6
ag6
ag6
aaa(lp104
(lp105
g6
ag6
ag6
ag6
aa(lp106
g29
ag30
ag29
ag4
aa(lp107
g6
ag6
ag6
ag6
aa(lp108
g29
ag6
ag6
ag4
aa(lp109
g6
ag6
ag6
ag6
aa(lp110
g29
ag6
ag6
ag4
aa(lp111
g6
ag6
ag6
ag6
aa(lp112
g6
ag3
ag6
ag4
aa(lp113
g6
ag6
ag6
ag6
aaa(lp114
(lp115
g6
ag6
ag6
ag6
aag106
a(lp116
g6
ag6
ag6
ag6
aa(lp117
g3
ag6
ag6
ag4
aa(lp118
g6
ag6
ag6
ag6
aa(lp119
g29
ag6
ag6
ag4
aa(lp120
g6
ag6
ag6
ag6
aag106
a(lp121
g6
ag6
ag6
ag6
aaa(lp122
(lp123
g6
ag6
ag6
ag6
aa(lp124
g4
ag30
ag4
ag29
aa(lp125
g6
ag6
ag6
ag6
aa(lp126
g4
ag30
ag4
ag29
aa(lp127
g6
ag6
ag6
ag6
aa(lp128
g4
ag6
ag6
ag29
aa(lp129
g6
ag6
ag6
ag6
aa(lp130
g39
ag37
ag37
ag58
aa(lp131
g6
ag6
ag6
ag6
aaa(lp132
(lp133
g6
ag6
ag6
ag6
aag124
a(lp134
g6
ag6
ag6
ag6
aa(lp135
g29
ag6
ag6
ag29
aa(lp136
g6
ag6
ag6
ag6
aa(lp137
g4
ag6
ag6
ag29
aa(lp138
g6
ag6
ag6
ag6
aa(lp139
g6
ag3
ag6
ag6
aa(lp140
g6
ag6
ag6
ag6
aaa(lp141
(lp142
g6
ag6
ag6
ag6
aag102
a(lp143
g6
ag6
ag6
ag6
aa(lp144
g6
ag6
ag6
ag6
aa(lp145
g3
ag6
ag6
ag4
aa(lp146
g6
ag6
ag6
ag6
aa(lp147
g6
ag3
ag6
ag4
aa(lp148
g6
ag6
ag6
ag6
aaa(lp149
(lp150
g6
ag6
ag6
ag6
aag106
a(lp151
g6
ag6
ag6
ag6
aa(lp152
g6
ag6
ag6
ag6
aa(lp153
g6
ag6
ag6
ag6
aa(lp154
g6
ag6
ag6
ag6
aaa(lp155
(lp156
g6
ag6
ag6
ag6
aag51
a(lp157
g6
ag6
ag6
ag6
aa(lp158
g4
ag6
ag6
ag29
aa(lp159
g6
ag6
ag6
ag6
aa(lp160
g4
ag6
ag6
ag29
aa(lp161
g6
ag6
ag6
ag6
aa(lp162
g4
ag6
ag6
ag29
aa(lp163
g6
ag6
ag6
ag6
aaa(lp164
(lp165
g6
ag6
ag6
ag6
aa(lp166
S'8'
p167
ag6
ag6
ag20
aa(lp168
g6
ag6
ag6
ag6
aa(lp169
g167
ag20
ag20
ag20
aa(lp170
g6
ag6
ag6
ag6
aa(lp171
g167
ag20
ag20
ag20
aa(lp172
g6
ag6
ag6
ag6
aa(lp173
g6
ag20
ag6
ag6
aa(lp174
g6
ag6
ag6
ag6
aaa(lp175
(lp176
g6
ag6
ag6
ag6
aa(lp177
g6
ag6
aS'7'
p178
ag6
aa(lp179
g6
ag6
ag6
ag6
aa(lp180
g178
ag167
ag178
ag4
aa(lp181
g6
ag6
ag6
ag6
aa(lp182
g6
ag6
ag178
ag6
aa(lp183
g6
ag6
ag6
ag6
aa(lp184
g6
ag6
ag178
ag6
aa(lp185
g6
ag6
ag6
ag6
aaa(lp186
(lp187
g6
ag6
ag6
ag6
aa(lp188
g178
ag167
ag178
ag4
aa(lp189
g6
ag6
ag6
ag6
aa(lp190
g6
ag6
ag6
ag6
aa(lp191
g6
ag6
ag6
ag6
aa(lp192
g6
ag6
ag6
ag6
aa(lp193
g6
ag6
ag6
ag6
aa(lp194
g178
ag6
ag6
ag4
aa(lp195
g6
ag6
ag6
ag6
aaa(lp196
(lp197
g6
ag6
ag6
ag6
aa(lp198
g20
ag3
ag20
aS'4'
p199
aa(lp200
g6
ag6
ag6
ag6
aa(lp201
g6
ag6
ag6
ag6
aa(lp202
g20
ag6
ag6
ag199
aa(lp203
g6
ag6
ag6
ag6
aa(lp204
g20
ag6
ag6
ag199
aa(lp205
g6
ag6
ag6
ag6
aaa(lp206
(lp207
g6
ag6
ag6
ag6
aag28
a(lp208
g6
ag6
ag6
ag6
aa(lp209
g6
ag6
ag6
ag6
aa(lp210
g6
ag6
ag6
ag6
aa(lp211
g6
ag6
ag6
ag6
aa(lp212
g29
ag3
ag6
ag6
aa(lp213
g6
ag6
ag6
ag6
aaa(lp214
(lp215
g6
ag6
ag6
ag6
aag2
a(lp216
g6
ag6
ag6
ag6
aa(lp217
g6
ag6
ag6
ag6
aa(lp218
g3
ag6
ag6
ag4
aa(lp219
g6
ag6
ag6
ag6
aa(lp220
g20
ag6
ag6
ag4
aa(lp221
g6
ag6
ag6
ag6
aaa(lp222
(lp223
g6
ag6
ag6
ag6
aa(lp224
g178
aS'6'
p225
ag4
ag4
aa(lp226
g6
ag6
ag6
ag6
aa(lp227
g6
ag6
ag6
ag6
aa(lp228
g6
ag6
ag6
ag6
aa(lp229
g6
ag6
ag6
ag6
aa(lp230
g178
ag6
ag6
ag4
aa(lp231
g6
ag6
ag6
ag6
aaa(lp232
(lp233
g6
ag6
ag6
ag6
aa(lp234
g6
ag20
ag6
ag20
aa(lp235
g6
ag6
ag6
ag6
aa(lp236
S'-'
p237
aS'5'
p238
ag238
ag238
aa(lp239
g237
ag237
ag237
ag237
aa(lp240
g237
ag238
ag237
ag238
aa(lp241
g237
ag237
ag237
ag237
aa(lp242
g237
ag238
ag237
ag238
aa(lp243
g237
ag237
ag237
ag237
aaa(lp244
(lp245
g237
ag237
ag237
ag237
aa(lp246
S'8'
p247
ag238
ag238
ag238
aa(lp248
g237
ag237
ag237
ag237
aa(lp249
g247
ag237
ag237
ag238
aa(lp250
g237
ag237
ag237
ag237
aa(lp251
S'10'
p252
aS'--'
p253
aS'--'
p254
aS'5-'
p255
aa(lp256
g237
ag237
ag237
ag237
aaa(lp257
(lp258
g237
ag237
ag237
ag237
aa(lp259
S'7'
p260
aS'0'
p261
ag261
ag261
aa(lp262
g237
ag237
ag237
ag237
aa(lp263
g260
ag237
ag237
ag261
aa(lp264
g237
ag237
ag237
ag237
aa(lp265
g238
ag237
ag237
ag261
aa(lp266
g237
ag237
ag237
ag237
aaa(lp267
(lp268
g237
ag237
ag237
ag237
aa(lp269
S'3'
p270
ag261
ag261
ag261
aa(lp271
g237
ag237
ag237
ag237
aa(lp272
g237
ag237
ag237
ag237
aa(lp273
g237
ag237
ag237
ag237
aa(lp274
g237
ag237
ag237
ag237
aa(lp275
g270
ag237
ag237
ag261
aa(lp276
g237
ag237
ag237
ag237
aaa(lp277
(lp278
g37
ag37
ag37
ag37
aa(lp279
g58
aS'1'
p280
ag58
ag39
aa(lp281
g37
ag37
ag37
ag37
aa(lp282
g37
ag37
ag37
ag37
aa(lp283
g37
ag37
ag37
ag37
aa(lp284
g37
ag37
ag37
ag37
aa(lp285
g58
ag37
ag37
ag39
aa(lp286
g37
ag37
ag37
ag37
aaa(lp287
(lp288
g37
ag37
ag37
ag37
aa(lp289
S'5'
p290
ag37
ag37
ag39
aa(lp291
g37
ag37
ag37
ag37
aa(lp292
g58
ag37
ag37
ag39
aa(lp293
g37
ag37
ag37
ag37
aa(lp294
g37
ag37
ag37
ag37
aa(lp295
g37
ag37
ag37
ag37
aa(lp296
g290
ag37
ag37
ag39
aa(lp297
g37
ag37
ag37
ag37
aaa(lp298
(lp299
g37
ag37
ag37
ag37
aa(lp300
g38
ag39
ag39
ag39
aa(lp301
g37
ag37
ag37
ag37
aa(lp302
g38
ag39
ag39
ag39
aa(lp303
g37
ag37
ag37
ag37
aa(lp304
g37
ag37
ag37
ag37
aa(lp305
g37
ag37
ag37
ag37
aa(lp306
g37
ag37
ag37
ag37
aaa.