(lp0
(lp1
(lp2
S'-'
p3
ag3
ag3
ag3
aa(lp4
g3
ag3
aS'0'
p5
ag3
aa(lp6
g3
ag3
ag3
ag3
aa(lp7
g5
aS'1'
p8
ag5
ag8
aa(lp9
g3
ag3
ag3
ag3
aa(lp10
S'2'
p11
ag8
ag11
ag8
aa(lp12
g3
ag3
ag3
ag3
aa(lp13
g3
ag3
ag3
ag3
aa(lp14
g3
ag3
ag3
ag3
aa(lp15
g3
ag3
ag3
ag3
aaa(lp16
(lp17
g3
ag3
ag3
ag3
aa(lp18
g11
ag5
ag11
ag5
aa(lp19
g3
ag3
ag3
ag3
aa(lp20
g3
ag3
ag3
ag3
aa(lp21
g3
ag3
ag3
ag3
aa(lp22
g3
aS'3'
p23
ag3
ag3
aa(lp24
g3
ag3
ag3
ag3
aa(lp25
g5
ag3
ag3
ag3
aa(lp26
g3
ag3
ag3
ag3
aaa(lp27
(lp28
g3
ag3
ag3
ag3
aa(lp29
g11
ag5
ag5
ag8
aa(lp30
g3
ag3
ag3
ag3
aa(lp31
g3
ag3
ag3
ag3
aa(lp32
g3
ag3
ag3
ag3
aa(lp33
g23
ag5
ag5
ag11
aa(lp34
g3
ag3
ag3
ag3
aa(lp35
g3
ag3
ag3
ag3
aa(lp36
g3
ag3
ag3
ag3
aaa(lp37
(lp38
g3
ag3
ag3
ag3
aa(lp39
g3
ag3
ag5
ag3
aa(lp40
g3
ag3
ag3
ag3
aa(lp41
g5
ag8
ag5
ag11
aa(lp42
g3
ag3
ag3
ag3
aa(lp43
g11
ag8
ag8
ag5
aa(lp44
g3
ag3
ag3
ag3
aa(lp45
g11
ag8
ag8
ag5
aa(lp46
g3
ag3
ag3
ag3
aaa(lp47
(lp48
g3
ag3
ag3
ag3
aa(lp49
g3
ag23
ag11
ag23
aa(lp50
g3
ag3
ag3
ag3
aa(lp51
g3
ag3
ag3
ag23
aa(lp52
g3
ag3
ag3
ag3
aa(lp53
g3
ag3
ag11
ag3
aa(lp54
g3
ag3
ag3
ag3
aa(lp55
g3
ag23
ag3
ag3
aa(lp56
g3
ag3
ag3
ag3
aa(lp57
g5
ag3
ag3
ag3
aa(lp58
g3
ag3
ag3
ag3
aa(lp59
g3
ag23
ag3
ag3
aa(lp60
g3
ag3
ag3
ag3
aa(lp61
g3
ag3
ag11
ag3
aa(lp62
g3
ag3
ag3
ag3
aa(lp63
g3
ag3
ag3
ag23
aa(lp64
g3
ag3
ag3
ag3
aaa(lp65
(lp66
g3
ag3
ag3
ag3
aa(lp67
g3
ag3
ag3
ag11
aa(lp68
g3
ag3
ag3
ag3
aa(lp69
g3
ag8
ag5
ag11
aa(lp70
g3
ag3
ag3
ag3
aa(lp71
g3
ag8
ag5
ag8
aa(lp72
g3
ag3
ag3
ag3
aa(lp73
g3
ag3
ag3
ag8
aa(lp74
g3
ag3
ag3
ag3
aa(lp75
g3
ag3
ag5
ag3
aa(lp76
g3
ag3
ag3
ag3
aa(lp77
g3
ag8
ag3
ag3
aa(lp78
g3
ag3
ag3
ag3
aaa(lp79
(lp80
g3
ag3
ag3
ag3
aa(lp81
g3
ag5
ag5
ag5
aa(lp82
g3
ag3
ag3
ag3
aa(lp83
g3
ag3
ag5
ag3
aa(lp84
g3
ag3
ag3
ag3
aa(lp85
g3
ag3
ag11
ag3
aa(lp86
g3
ag3
ag3
ag3
aaa(lp87
(lp88
g3
ag3
ag3
ag3
aa(lp89
g3
ag5
ag5
ag8
aa(lp90
g3
ag3
ag3
ag3
aa(lp91
g3
ag3
ag3
ag3
aa(lp92
g3
ag3
ag3
ag3
aa(lp93
g3
ag8
ag8
ag5
aa(lp94
g3
ag3
ag3
ag3
aa(lp95
g3
ag3
ag3
ag3
aa(lp96
g3
ag3
ag3
ag3
aaa(lp97
(lp98
g3
ag3
ag3
ag3
aa(lp99
S'5'
p100
ag8
ag5
ag5
aa(lp101
g3
ag3
ag3
ag3
aa(lp102
g11
ag3
ag3
ag3
aa(lp103
g3
ag3
ag3
ag3
aa(lp104
g23
ag3
ag3
ag3
aa(lp105
g3
ag3
ag3
ag3
aaa(lp106
(lp107
g3
ag3
ag3
ag3
aa(lp108
g100
ag8
ag11
ag5
aa(lp109
g3
ag3
ag3
ag3
aa(lp110
g3
ag3
ag3
ag3
aa(lp111
g3
ag3
ag3
ag3
aa(lp112
S'7'
p113
aS'4'
p114
ag100
ag114
aa(lp115
g3
ag3
ag3
ag3
aa(lp116
g3
ag3
ag3
ag3
aa(lp117
g3
ag3
ag3
ag3
aaa(lp118
(lp119
g3
ag3
ag3
ag3
aa(lp120
g23
ag5
ag5
ag5
aa(lp121
g3
ag3
ag3
ag3
aag120
a(lp122
g3
ag3
ag3
ag3
aa(lp123
g23
ag8
ag5
ag5
aa(lp124
g3
ag3
ag3
ag3
aa(lp125
g23
ag8
ag11
ag5
aa(lp126
g3
ag3
ag3
ag3
aaa(lp127
(lp128
g3
ag3
ag3
ag3
aa(lp129
g3
ag3
ag5
ag3
aa(lp130
g3
ag3
ag3
ag3
aa(lp131
g5
ag8
ag5
ag8
aa(lp132
g3
ag3
ag3
ag3
aa(lp133
g11
ag8
ag11
ag8
aa(lp134
g3
ag3
ag3
ag3
aa(lp135
g3
ag3
ag3
ag3
aa(lp136
g3
ag3
ag3
ag3
aa(lp137
g3
ag3
ag3
ag3
aaa(lp138
(lp139
g3
ag3
ag3
ag3
aa(lp140
g11
ag5
ag11
ag5
aa(lp141
g3
ag3
ag3
ag3
aa(lp142
g3
ag3
ag3
ag3
aa(lp143
g3
ag3
ag3
ag3
aa(lp144
g3
ag23
ag3
ag3
aa(lp145
g3
ag3
ag3
ag3
aa(lp146
g5
ag3
ag3
ag3
aa(lp147
g3
ag3
ag3
ag3
aaa(lp148
(lp149
g3
ag3
ag3
ag3
aa(lp150
g11
ag5
ag5
ag8
aa(lp151
g3
ag3
ag3
ag3
aa(lp152
g3
ag3
ag3
ag3
aa(lp153
g3
ag3
ag3
ag3
aa(lp154
g23
ag5
ag5
ag11
aa(lp155
g3
ag3
ag3
ag3
aa(lp156
g3
ag3
ag3
ag3
aa(lp157
g3
ag3
ag3
ag3
aaa(lp158
(lp159
g3
ag3
ag3
ag3
aa(lp160
g3
ag3
ag5
ag3
aa(lp161
g3
ag3
ag3
ag3
aa(lp162
g5
ag8
ag5
ag11
aa(lp163
g3
ag3
ag3
ag3
aa(lp164
g11
ag8
ag8
ag5
aa(lp165
g3
ag3
ag3
ag3
aa(lp166
g11
ag8
ag8
ag5
aa(lp167
g3
ag3
ag3
ag3
aaa(lp168
(lp169
g3
ag3
ag3
ag3
aa(lp170
g3
ag23
ag11
ag23
aa(lp171
g3
ag3
ag3
ag3
aa(lp172
g3
ag3
ag3
ag23
aa(lp173
g3
ag3
ag3
ag3
aa(lp174
g3
ag3
ag11
ag3
aa(lp175
g3
ag3
ag3
ag3
aa(lp176
g3
ag23
ag3
ag3
aa(lp177
g3
ag3
ag3
ag3
aa(lp178
g5
ag3
ag3
ag3
aa(lp179
g3
ag3
ag3
ag3
aa(lp180
g3
ag23
ag3
ag3
aa(lp181
g3
ag3
ag3
ag3
aa(lp182
g3
ag3
ag11
ag3
aa(lp183
g3
ag3
ag3
ag3
aa(lp184
g3
ag3
ag3
ag23
aa(lp185
g3
ag3
ag3
ag3
aaa(lp186
(lp187
g3
ag3
ag3
ag3
aa(lp188
g3
ag3
ag3
ag11
aa(lp189
g3
ag3
ag3
ag3
aa(lp190
g3
ag8
ag5
ag11
aa(lp191
g3
ag3
ag3
ag3
aa(lp192
g23
ag8
ag5
ag8
aa(lp193
g3
ag3
ag3
ag3
aa(lp194
g100
ag114
ag5
ag23
aa(lp195
g3
ag3
ag3
ag3
aaa(lp196
(lp197
g3
ag3
ag3
ag3
aa(lp198
g113
ag5
ag5
ag5
aa(lp199
g3
ag3
ag3
ag3
aa(lp200
g23
ag3
ag3
ag3
aa(lp201
g3
ag3
ag3
ag3
aa(lp202
g100
ag3
ag3
ag3
aa(lp203
g3
ag3
ag3
ag3
aaa(lp204
(lp205
g3
ag3
ag3
ag3
aa(lp206
g113
aS'6'
p207
ag100
ag207
aa(lp208
g3
ag3
ag3
ag3
aa(lp209
g3
ag3
ag3
ag3
aa(lp210
g3
ag3
ag3
ag3
aa(lp211
S'8'
p212
ag113
ag100
ag207
aa(lp213
g3
ag3
ag3
ag3
aa(lp214
g3
ag3
ag3
ag3
aa(lp215
g3
ag3
ag3
ag3
aaa(lp216
(lp217
g3
ag3
ag3
ag3
aa(lp218
g100
ag8
ag5
ag5
aa(lp219
g3
ag3
ag3
ag3
aa(lp220
g11
ag3
ag3
ag3
aa(lp221
g3
ag3
ag3
ag3
aa(lp222
g23
ag3
ag3
ag3
aa(lp223
g3
ag3
ag3
ag3
aaa(lp224
(lp225
g3
ag3
ag3
ag3
aa(lp226
g100
ag8
ag11
ag5
aa(lp227
g3
ag3
ag3
ag3
aa(lp228
g3
ag3
ag3
ag3
aa(lp229
g3
ag3
ag3
ag3
aa(lp230
g113
ag114
ag100
ag114
aa(lp231
g3
ag3
ag3
ag3
aa(lp232
g3
ag3
ag3
ag3
aa(lp233
g3
ag3
ag3
ag3
aaa(lp234
(lp235
g3
ag3
ag3
ag3
aag120
a(lp236
g3
ag3
ag3
ag3
aa(lp237
g23
ag8
ag5
ag5
aa(lp238
g3
ag3
ag3
ag3
aag120
a(lp239
g3
ag3
ag3
ag3
aa(lp240
g3
ag3
ag3
ag3
aa(lp241
g3
ag3
ag3
ag3
aa(lp242
g3
ag23
ag3
ag3
aa(lp243
g3
ag3
ag3
ag3
aaa(lp244
(lp245
g3
ag3
ag3
ag3
aa(lp246
g3
ag5
ag5
ag5
aa(lp247
g3
ag3
ag3
ag3
aa(lp248
g3
ag23
ag3
ag3
aa(lp249
g3
ag3
ag3
ag3
aa(lp250
g3
ag5
ag5
ag8
aa(lp251
g3
ag3
ag3
ag3
aa(lp252
g3
ag23
ag3
ag3
aa(lp253
g3
ag3
ag3
ag3
aaa(lp254
(lp255
g3
ag3
ag3
ag3
aa(lp256
g3
ag5
ag5
ag11
aa(lp257
g3
ag3
ag3
ag3
aa(lp258
g3
ag23
ag3
ag3
aa(lp259
g3
ag3
ag3
ag3
aa(lp260
g3
ag5
ag5
ag8
aa(lp261
g3
ag3
ag3
ag3
aa(lp262
g3
ag23
ag3
ag3
aa(lp263
g3
ag3
ag3
ag3
aaa(lp264
(lp265
g3
ag3
ag3
ag3
aa(lp266
g3
ag8
ag5
ag11
aa(lp267
g3
ag3
ag3
ag3
aa(lp268
g3
ag23
ag3
ag3
aa(lp269
g3
ag3
ag3
ag3
aa(lp270
g3
ag8
ag5
ag8
aa(lp271
g3
ag3
ag3
ag3
aa(lp272
g3
ag23
ag3
ag3
aa(lp273
g3
ag3
ag3
ag3
aaa(lp274
(lp275
g3
ag3
ag3
ag3
aa(lp276
g3
ag8
ag11
ag5
aa(lp277
g3
ag3
ag3
ag3
aa(lp278
g3
ag23
ag3
ag3
aa(lp279
g3
ag3
ag3
ag3
aa(lp280
g3
ag8
ag23
ag5
aa(lp281
g3
ag3
ag3
ag3
aa(lp282
g3
ag23
ag3
ag3
aa(lp283
g3
ag3
ag3
ag3
aaa(lp284
(lp285
g3
ag3
ag3
ag3
aa(lp286
g5
ag5
ag5
ag5
aa(lp287
g3
ag3
ag3
ag3
aa(lp288
g5
ag5
ag5
ag5
aa(lp289
g3
ag3
ag3
ag3
aa(lp290
g5
ag5
ag8
ag5
aa(lp291
g3
ag3
ag3
ag3
aa(lp292
g5
ag5
ag8
ag5
aa(lp293
g3
ag3
ag3
ag3
aaa(lp294
(lp295
g3
ag3
ag3
ag3
aa(lp296
g5
ag8
ag11
ag11
aa(lp297
g3
ag3
ag3
ag3
aag296
a(lp298
g3
ag3
ag3
ag3
aa(lp299
g5
ag23
ag114
ag114
aa(lp300
g3
ag3
ag3
ag3
aa(lp301
g3
ag3
ag3
ag3
aa(lp302
g3
ag23
ag3
ag3
aa(lp303
g3
ag3
ag3
ag3
aaa(lp304
(lp305
g3
ag3
ag3
ag3
aa(lp306
g3
ag5
ag5
ag5
aa(lp307
g3
ag3
ag3
ag3
aa(lp308
g3
ag23
ag3
ag3
aa(lp309
g3
ag3
ag3
ag3
aa(lp310
g3
ag5
ag3
ag3
aa(lp311
g3
ag3
ag3
ag3
aa(lp312
g3
ag23
ag3
ag3
aa(lp313
g3
ag3
ag3
ag3
aaa(lp314
(lp315
g3
ag3
ag3
ag3
aa(lp316
g3
ag5
ag5
ag23
aa(lp317
g3
ag3
ag3
ag3
aa(lp318
g3
ag23
ag3
ag3
aa(lp319
g3
ag3
ag3
ag3
aa(lp320
g3
ag5
ag3
ag3
aa(lp321
g3
ag3
ag3
ag3
aa(lp322
g3
ag23
ag3
ag3
aa(lp323
g3
ag3
ag3
ag3
aaa(lp324
(lp325
g3
ag3
ag3
ag3
aa(lp326
g3
ag11
ag5
ag11
aa(lp327
g3
ag3
ag3
ag3
aa(lp328
g5
ag3
ag3
ag3
aa(lp329
g3
ag3
ag3
ag3
aa(lp330
g3
ag11
ag3
ag3
aa(lp331
g3
ag3
ag3
ag3
aa(lp332
g5
ag3
ag3
ag3
aa(lp333
g3
ag3
ag3
ag3
aaa(lp334
(lp335
g3
ag3
ag3
ag3
aa(lp336
g3
ag11
ag23
ag114
aa(lp337
g3
ag3
ag3
ag3
aa(lp338
g5
ag3
ag3
ag3
aa(lp339
g3
ag3
ag3
ag3
aa(lp340
g3
ag11
ag3
ag3
aa(lp341
g3
ag3
ag3
ag3
aa(lp342
g5
ag3
ag3
ag3
aa(lp343
g3
ag3
ag3
ag3
aaa(lp344
(lp345
g3
ag3
ag3
ag3
aa(lp346
g11
ag5
ag5
ag11
aa(lp347
g3
ag3
ag3
ag3
aa(lp348
g11
ag5
ag5
ag11
aa(lp349
g3
ag3
ag3
ag3
aa(lp350
g11
ag5
ag5
ag8
aa(lp351
g3
ag3
ag3
ag3
aa(lp352
g11
ag5
ag5
ag8
aa(lp353
g3
ag3
ag3
ag3
aaa(lp354
(lp355
g3
ag3
ag3
ag3
aa(lp356
g100
ag114
ag114
ag23
aa(lp357
g3
ag3
ag3
ag3
aa(lp358
g100
ag114
ag114
ag23
aa(lp359
g3
ag3
ag3
ag3
aa(lp360
g5
ag23
ag23
ag114
aa(lp361
g3
ag3
ag3
ag3
aa(lp362
g3
ag3
ag3
ag3
aa(lp363
g3
ag3
ag3
ag3
aaa(lp364
(lp365
g3
ag3
ag3
ag3
aa(lp366
g3
ag3
ag5
ag3
aa(lp367
g3
ag3
ag3
ag3
aa(lp368
g5
ag8
ag5
ag8
aa(lp369
g3
ag3
ag3
ag3
aa(lp370
g11
ag8
ag11
ag8
aa(lp371
g3
ag3
ag3
ag3
aa(lp372
g3
ag3
ag3
ag3
aa(lp373
g3
ag3
ag3
ag3
aa(lp374
g3
ag3
ag3
ag3
aaa(lp375
(lp376
g3
ag3
ag3
ag3
aa(lp377
g11
ag5
ag11
ag5
aa(lp378
g3
ag3
ag3
ag3
aa(lp379
g3
ag3
ag3
ag3
aa(lp380
g3
ag3
ag3
ag3
aa(lp381
g3
ag23
ag3
ag3
aa(lp382
g3
ag3
ag3
ag3
aa(lp383
g5
ag3
ag3
ag3
aa(lp384
g3
ag3
ag3
ag3
aaa(lp385
(lp386
g3
ag3
ag3
ag3
aa(lp387
g11
ag5
ag5
ag8
aa(lp388
g3
ag3
ag3
ag3
aa(lp389
g3
ag3
ag3
ag3
aa(lp390
g3
ag3
ag3
ag3
aa(lp391
g23
ag5
ag5
ag11
aa(lp392
g3
ag3
ag3
ag3
aa(lp393
g3
ag3
ag3
ag3
aa(lp394
g3
ag3
ag3
ag3
aaa(lp395
(lp396
g3
ag3
ag3
ag3
aa(lp397
g3
ag3
ag5
ag3
aa(lp398
g3
ag3
ag3
ag3
aa(lp399
g5
ag8
ag5
ag11
aa(lp400
g3
ag3
ag3
ag3
aa(lp401
g11
ag8
ag8
ag5
aa(lp402
g3
ag3
ag3
ag3
aa(lp403
g11
ag8
ag8
ag5
aa(lp404
g3
ag3
ag3
ag3
aaa(lp405
(lp406
g3
ag3
ag3
ag3
aa(lp407
g3
ag23
ag11
ag23
aa(lp408
g3
ag3
ag3
ag3
aa(lp409
g3
ag3
ag3
ag23
aa(lp410
g3
ag3
ag3
ag3
aa(lp411
g3
ag3
ag11
ag3
aa(lp412
g3
ag3
ag3
ag3
aa(lp413
g3
ag23
ag3
ag3
aa(lp414
g3
ag3
ag3
ag3
aa(lp415
g5
ag3
ag3
ag3
aa(lp416
g3
ag3
ag3
ag3
aa(lp417
g3
ag23
ag3
ag3
aa(lp418
g3
ag3
ag3
ag3
aa(lp419
g3
ag3
ag11
ag3
aa(lp420
g3
ag3
ag3
ag3
aa(lp421
g3
ag3
ag3
ag23
aa(lp422
g3
ag3
ag3
ag3
aaa(lp423
(lp424
g3
ag3
ag3
ag3
aa(lp425
g3
ag3
ag3
ag11
aa(lp426
g3
ag3
ag3
ag3
aa(lp427
g3
ag8
ag5
ag11
aa(lp428
g3
ag3
ag3
ag3
aa(lp429
g23
ag8
ag5
ag8
aa(lp430
g3
ag3
ag3
ag3
aa(lp431
g100
ag114
ag5
ag23
aa(lp432
g3
ag3
ag3
ag3
aaa(lp433
(lp434
g3
ag3
ag3
ag3
aa(lp435
g113
ag5
ag5
ag5
aa(lp436
g3
ag3
ag3
ag3
aa(lp437
g23
ag3
ag3
ag3
aa(lp438
g3
ag3
ag3
ag3
aa(lp439
g100
ag3
ag3
ag3
aa(lp440
g3
ag3
ag3
ag3
aaa(lp441
(lp442
g3
ag3
ag3
ag3
aa(lp443
g113
ag207
ag100
ag207
aa(lp444
g3
ag3
ag3
ag3
aa(lp445
g3
ag3
ag3
ag3
aa(lp446
g3
ag3
ag3
ag3
aa(lp447
g212
ag113
ag100
ag207
aa(lp448
g3
ag3
ag3
ag3
aa(lp449
g3
ag3
ag3
ag3
aa(lp450
g3
ag3
ag3
ag3
aaa(lp451
(lp452
g3
ag3
ag3
ag3
aa(lp453
g100
ag8
ag5
ag5
aa(lp454
g3
ag3
ag3
ag3
aa(lp455
g11
ag3
ag3
ag3
aa(lp456
g3
ag3
ag3
ag3
aa(lp457
g23
ag3
ag3
ag3
aa(lp458
g3
ag3
ag3
ag3
aaa(lp459
(lp460
g3
ag3
ag3
ag3
aa(lp461
g100
ag8
ag11
ag5
aa(lp462
g3
ag3
ag3
ag3
aa(lp463
g3
ag3
ag3
ag3
aa(lp464
g3
ag3
ag3
ag3
aa(lp465
g113
ag114
ag100
ag114
aa(lp466
g3
ag3
ag3
ag3
aa(lp467
g3
ag3
ag3
ag3
aa(lp468
g3
ag3
ag3
ag3
aaa(lp469
(lp470
g3
ag3
ag3
ag3
aa(lp471
g23
ag5
ag5
ag8
aa(lp472
g3
ag3
ag3
ag3
aa(lp473
g23
ag5
ag5
ag8
aa(lp474
g3
ag3
ag3
ag3
aa(lp475
g23
ag5
ag5
ag11
aa(lp476
g3
ag3
ag3
ag3
aa(lp477
g23
ag5
ag5
ag11
aa(lp478
g3
ag3
ag3
ag3
aaa(lp479
(lp480
g3
ag3
ag3
ag3
aa(lp481
g100
ag8
ag5
ag5
aa(lp482
g3
ag3
ag3
ag3
aa(lp483
g11
ag3
ag3
ag3
aa(lp484
g3
ag3
ag3
ag3
aa(lp485
g23
ag3
ag3
ag3
aa(lp486
g3
ag3
ag3
ag3
aaa(lp487
(lp488
g3
ag3
ag3
ag3
aa(lp489
g5
ag8
ag11
ag5
aa(lp490
g3
ag3
ag3
ag3
aa(lp491
g11
ag8
ag8
ag5
aa(lp492
g3
ag3
ag3
ag3
aaa(lp493
(lp494
g3
ag3
ag3
ag3
aag120
a(lp495
g3
ag3
ag3
ag3
aa(lp496
g3
ag3
ag3
ag3
aa(lp497
g3
ag3
ag3
ag3
aa(lp498
g3
ag3
ag3
ag3
aa(lp499
g3
ag23
ag3
ag3
aa(lp500
g3
ag3
ag3
ag3
aaa(lp501
(lp502
g3
ag3
ag3
ag3
aa(lp503
g113
ag113
ag5
ag5
aa(lp504
g3
ag3
ag3
ag3
aa(lp505
g3
ag3
ag3
ag3
aa(lp506
g3
ag3
ag3
ag3
aa(lp507
g3
ag3
ag3
ag3
aaa.